
SECoreBin.elf:     file format elf32-littlearm

Sections:
Idx Name          Size      VMA       LMA       File off  Algn
  0 .SE_CallGate_Code 000000cc  08000200  08000200  00000200  2**2
                  CONTENTS, ALLOC, LOAD, READONLY, CODE
  1 .SE_Key_Data  000000cc  08000400  08000400  00000400  2**1
                  CONTENTS, ALLOC, LOAD, READONLY, DATA
  2 .SE_Startup_Code 00000010  08000500  08000500  00000500  2**2
                  CONTENTS, ALLOC, LOAD, READONLY, CODE
  3 .text         00003dc0  08000600  08000600  00000600  2**2
                  CONTENTS, ALLOC, LOAD, READONLY, CODE
  4 .rodata       00000898  080043c0  080043c0  000043c0  2**2
                  CONTENTS, ALLOC, LOAD, READONLY, DATA
  5 .ARM.extab    00000000  08004c58  08004c58  00010408  2**0
                  CONTENTS
  6 .ARM          00000000  08004c58  08004c58  00010408  2**0
                  CONTENTS
  7 .preinit_array 00000000  08004c58  08004c58  00010408  2**0
                  CONTENTS, ALLOC, LOAD, DATA
  8 .init_array   00000008  08004c58  08004c58  00004c58  2**2
                  CONTENTS, ALLOC, LOAD, DATA
  9 .fini_array   00000008  08004c60  08004c60  00004c60  2**2
                  CONTENTS, ALLOC, LOAD, DATA
 10 .data         00000008  20000400  08004c68  00010400  2**2
                  CONTENTS, ALLOC, LOAD, DATA
 11 .bss          00000a30  20000408  08004c70  00010408  2**2
                  ALLOC
 12 .ARM.attributes 0000002e  00000000  00000000  00010408  2**0
                  CONTENTS, READONLY
 13 .debug_info   00005918  00000000  00000000  00010436  2**0
                  CONTENTS, READONLY, DEBUGGING, OCTETS
 14 .debug_abbrev 0000179e  00000000  00000000  00015d4e  2**0
                  CONTENTS, READONLY, DEBUGGING, OCTETS
 15 .debug_aranges 00000360  00000000  00000000  000174ec  2**0
                  CONTENTS, READONLY, DEBUGGING, OCTETS
 16 .debug_ranges 00000400  00000000  00000000  0001784c  2**0
                  CONTENTS, READONLY, DEBUGGING, OCTETS
 17 .debug_macro  00020db0  00000000  00000000  00017c4c  2**0
                  CONTENTS, READONLY, DEBUGGING, OCTETS
 18 .debug_line   00009c11  00000000  00000000  000389fc  2**0
                  CONTENTS, READONLY, DEBUGGING, OCTETS
 19 .debug_str    000c11ca  00000000  00000000  0004260d  2**0
                  CONTENTS, READONLY, DEBUGGING, OCTETS
 20 .comment      000000d2  00000000  00000000  001037d7  2**0
                  CONTENTS, READONLY
 21 .debug_frame  00000830  00000000  00000000  001038ac  2**2
                  CONTENTS, READONLY, DEBUGGING, OCTETS
 22 .debug_loc    00002ad2  00000000  00000000  001040dc  2**0
                  CONTENTS, READONLY, DEBUGGING, OCTETS

Disassembly of section .SE_CallGate_Code:

08000200 <SE_CallGate-0x4>:
 8000200:	00000000 	andeq	r0, r0, r0

08000204 <SE_CallGate>:
  * @param eID: Secure Engine protected function ID.
  * @param peSE_Status: Secure Engine Status.
  * @retval SE_ErrorStatus SE_SUCCESS if successful, SE_ERROR otherwise.
  */
SE_ErrorStatus SE_CallGate(SE_FunctionIDTypeDef eID, SE_StatusTypeDef *const peSE_Status, uint32_t PrimaskParam, ...)
{
 8000204:	b40c      	push	{r2, r3}
 8000206:	b580      	push	{r7, lr}
 8000208:	b086      	sub	sp, #24
 800020a:	af00      	add	r7, sp, #0
 800020c:	6078      	str	r0, [r7, #4]
 800020e:	6039      	str	r1, [r7, #0]
  LR = get_LR();
#elif defined(__ARMCC_VERSION)
  __asm volatile("MOV %0, LR\n" : "=r"(LR));
#elif defined(__GNUC__)
  register unsigned lr asm("lr");
  LR = lr;
 8000210:	4673      	mov	r3, lr
 8000212:	60fb      	str	r3, [r7, #12]
   * instead of return(SE_ERROR) to avoid any attempt of attack by modifying
   * the call stack (LR) in order to execute code inside secure enclave
   */

  /* Check the Callgate was called only from SE Interface */
  IS_CALLER_SE_IF();
 8000214:	68fb      	ldr	r3, [r7, #12]
 8000216:	4a29      	ldr	r2, [pc, #164]	; (80002bc <SE_CallGate+0xb8>)
 8000218:	4293      	cmp	r3, r2
 800021a:	d201      	bcs.n	8000220 <SE_CallGate+0x1c>
 800021c:	f000 fed4 	bl	8000fc8 <__NVIC_SystemReset>
 8000220:	68fb      	ldr	r3, [r7, #12]
 8000222:	4a27      	ldr	r2, [pc, #156]	; (80002c0 <SE_CallGate+0xbc>)
 8000224:	4293      	cmp	r3, r2
 8000226:	d901      	bls.n	800022c <SE_CallGate+0x28>
 8000228:	f000 fece 	bl	8000fc8 <__NVIC_SystemReset>

  /* Check the pointers allocation */
  if (SE_LL_Buffer_in_ram(peSE_Status, sizeof(*peSE_Status)) != SE_SUCCESS)
 800022c:	2104      	movs	r1, #4
 800022e:	6838      	ldr	r0, [r7, #0]
 8000230:	f000 fcaa 	bl	8000b88 <SE_LL_Buffer_in_ram>
 8000234:	4603      	mov	r3, r0
 8000236:	4a23      	ldr	r2, [pc, #140]	; (80002c4 <SE_CallGate+0xc0>)
 8000238:	4293      	cmp	r3, r2
 800023a:	d001      	beq.n	8000240 <SE_CallGate+0x3c>
  {
    NVIC_SystemReset();
 800023c:	f000 fec4 	bl	8000fc8 <__NVIC_SystemReset>
  }
  if (SE_LL_Buffer_part_of_SE_ram(peSE_Status, sizeof(*peSE_Status)) == SE_SUCCESS)
 8000240:	2104      	movs	r1, #4
 8000242:	6838      	ldr	r0, [r7, #0]
 8000244:	f000 fcce 	bl	8000be4 <SE_LL_Buffer_part_of_SE_ram>
 8000248:	4603      	mov	r3, r0
 800024a:	4a1e      	ldr	r2, [pc, #120]	; (80002c4 <SE_CallGate+0xc0>)
 800024c:	4293      	cmp	r3, r2
 800024e:	d101      	bne.n	8000254 <SE_CallGate+0x50>
  {
    NVIC_SystemReset();
 8000250:	f000 feba 	bl	8000fc8 <__NVIC_SystemReset>
  }

  /* Double Check to avoid basic fault injection : the Callgate was called only from SE Interface */
  IS_CALLER_SE_IF();
 8000254:	68fb      	ldr	r3, [r7, #12]
 8000256:	4a19      	ldr	r2, [pc, #100]	; (80002bc <SE_CallGate+0xb8>)
 8000258:	4293      	cmp	r3, r2
 800025a:	d201      	bcs.n	8000260 <SE_CallGate+0x5c>
 800025c:	f000 feb4 	bl	8000fc8 <__NVIC_SystemReset>
 8000260:	68fb      	ldr	r3, [r7, #12]
 8000262:	4a17      	ldr	r2, [pc, #92]	; (80002c0 <SE_CallGate+0xbc>)
 8000264:	4293      	cmp	r3, r2
 8000266:	d901      	bls.n	800026c <SE_CallGate+0x68>
 8000268:	f000 feae 	bl	8000fc8 <__NVIC_SystemReset>

  /* Double Check to avoid basic fault injection : Check the pointers allocation */
  if (SE_LL_Buffer_in_ram(peSE_Status, sizeof(*peSE_Status)) != SE_SUCCESS)
 800026c:	2104      	movs	r1, #4
 800026e:	6838      	ldr	r0, [r7, #0]
 8000270:	f000 fc8a 	bl	8000b88 <SE_LL_Buffer_in_ram>
 8000274:	4603      	mov	r3, r0
 8000276:	4a13      	ldr	r2, [pc, #76]	; (80002c4 <SE_CallGate+0xc0>)
 8000278:	4293      	cmp	r3, r2
 800027a:	d001      	beq.n	8000280 <SE_CallGate+0x7c>
  {
    NVIC_SystemReset();
 800027c:	f000 fea4 	bl	8000fc8 <__NVIC_SystemReset>
  }
  if (SE_LL_Buffer_part_of_SE_ram(peSE_Status, sizeof(*peSE_Status)) == SE_SUCCESS)
 8000280:	2104      	movs	r1, #4
 8000282:	6838      	ldr	r0, [r7, #0]
 8000284:	f000 fcae 	bl	8000be4 <SE_LL_Buffer_part_of_SE_ram>
 8000288:	4603      	mov	r3, r0
 800028a:	4a0e      	ldr	r2, [pc, #56]	; (80002c4 <SE_CallGate+0xc0>)
 800028c:	4293      	cmp	r3, r2
 800028e:	d101      	bne.n	8000294 <SE_CallGate+0x90>
  {
    NVIC_SystemReset();
 8000290:	f000 fe9a 	bl	8000fc8 <__NVIC_SystemReset>
#if defined(CKS_ENABLED)
  PrevIpccC1RxIrqState = NVIC_GetEnableIRQ(IPCC_C1_RX_IRQn);
  PrevIpccC1TxIrqState = NVIC_GetEnableIRQ(IPCC_C1_TX_IRQn);
#endif /* CKS_ENABLED */

  *peSE_Status =  SE_OK;
 8000294:	683b      	ldr	r3, [r7, #0]
 8000296:	4a0c      	ldr	r2, [pc, #48]	; (80002c8 <SE_CallGate+0xc4>)
 8000298:	601a      	str	r2, [r3, #0]

  /* Initializing arguments to store all values after peSE_Status */
  va_start(arguments, PrimaskParam);
 800029a:	f107 0324 	add.w	r3, r7, #36	; 0x24
 800029e:	613b      	str	r3, [r7, #16]
#if defined(SFU_ISOLATE_SE_WITH_FIREWALL)
  /* Set SE specific stack before executing SE service */
  e_ret_status =  SE_SP_SMUGGLE(eID, peSE_Status, arguments);
#else
  /* No need to use a specific Stack */
  e_ret_status =  SE_CallGateService(eID, peSE_Status, arguments);
 80002a0:	693a      	ldr	r2, [r7, #16]
 80002a2:	6839      	ldr	r1, [r7, #0]
 80002a4:	6878      	ldr	r0, [r7, #4]
 80002a6:	f000 fea1 	bl	8000fec <SE_CallGateService>
 80002aa:	6178      	str	r0, [r7, #20]
#endif /* SFU_ISOLATE_SE_WITH_FIREWALL */

  /* Exit the protected area */
  EXIT_PROTECTED_AREA();

  return e_ret_status;
 80002ac:	697b      	ldr	r3, [r7, #20]
}
 80002ae:	4618      	mov	r0, r3
 80002b0:	3718      	adds	r7, #24
 80002b2:	46bd      	mov	sp, r7
 80002b4:	e8bd 4080 	ldmia.w	sp!, {r7, lr}
 80002b8:	b002      	add	sp, #8
 80002ba:	4770      	bx	lr
 80002bc:	08008000 	.word	0x08008000
 80002c0:	080088ff 	.word	0x080088ff
 80002c4:	0012310f 	.word	0x0012310f
 80002c8:	0012e223 	.word	0x0012e223

Disassembly of section .SE_Startup_Code:

08000500 <SE_CORE_Startup>:
  */
#if defined(__ARMCC_VERSION)
__attribute__((section(".SE_Startup_Code")))
#endif /* __ARMCC_VERSION */
__root SE_ErrorStatus SE_CORE_Startup(void)
{
 8000500:	b508      	push	{r3, lr}
  /* Data initialization function*/
  __iar_data_init3();
#elif defined (__ARMCC_VERSION)
  __arm_data_init();
#elif defined(__GNUC__)
  __gcc_data_init();
 8000502:	f000 f8db 	bl	80006bc <__gcc_data_init>
#endif /* __ICCARM__ */

  /*NOTE : other initialization may be added here */
  return SE_SUCCESS;
}
 8000506:	4801      	ldr	r0, [pc, #4]	; (800050c <SE_CORE_Startup+0xc>)
 8000508:	bd08      	pop	{r3, pc}
 800050a:	bf00      	nop
 800050c:	0012310f 	.word	0x0012310f

Disassembly of section .text:

08000600 <__do_global_dtors_aux>:
 8000600:	b510      	push	{r4, lr}
 8000602:	4c05      	ldr	r4, [pc, #20]	; (8000618 <__do_global_dtors_aux+0x18>)
 8000604:	7823      	ldrb	r3, [r4, #0]
 8000606:	b933      	cbnz	r3, 8000616 <__do_global_dtors_aux+0x16>
 8000608:	4b04      	ldr	r3, [pc, #16]	; (800061c <__do_global_dtors_aux+0x1c>)
 800060a:	b113      	cbz	r3, 8000612 <__do_global_dtors_aux+0x12>
 800060c:	4804      	ldr	r0, [pc, #16]	; (8000620 <__do_global_dtors_aux+0x20>)
 800060e:	f3af 8000 	nop.w
 8000612:	2301      	movs	r3, #1
 8000614:	7023      	strb	r3, [r4, #0]
 8000616:	bd10      	pop	{r4, pc}
 8000618:	20000408 	.word	0x20000408
 800061c:	00000000 	.word	0x00000000
 8000620:	080043a4 	.word	0x080043a4

08000624 <frame_dummy>:
 8000624:	b508      	push	{r3, lr}
 8000626:	4b03      	ldr	r3, [pc, #12]	; (8000634 <frame_dummy+0x10>)
 8000628:	b11b      	cbz	r3, 8000632 <frame_dummy+0xe>
 800062a:	4903      	ldr	r1, [pc, #12]	; (8000638 <frame_dummy+0x14>)
 800062c:	4803      	ldr	r0, [pc, #12]	; (800063c <frame_dummy+0x18>)
 800062e:	f3af 8000 	nop.w
 8000632:	bd08      	pop	{r3, pc}
 8000634:	00000000 	.word	0x00000000
 8000638:	2000040c 	.word	0x2000040c
 800063c:	080043a4 	.word	0x080043a4

08000640 <LoopCopyDataInit>:
	extern uint8_t _edata asm("_edata");

	vu32* src = (vu32*) &_sidata;
	vu32* dst = (vu32*) &_sdata;

	vu32 len = (&_edata - &_sdata) / 4;
 8000640:	4b0d      	ldr	r3, [pc, #52]	; (8000678 <LoopCopyDataInit+0x38>)
 8000642:	4a0e      	ldr	r2, [pc, #56]	; (800067c <LoopCopyDataInit+0x3c>)

	for(vu32 i=0; i < len; i++)
		dst[i] = src[i];
 8000644:	480e      	ldr	r0, [pc, #56]	; (8000680 <LoopCopyDataInit+0x40>)
	vu32 len = (&_edata - &_sdata) / 4;
 8000646:	1a9b      	subs	r3, r3, r2
{
 8000648:	b082      	sub	sp, #8
	vu32 len = (&_edata - &_sdata) / 4;
 800064a:	bf48      	it	mi
 800064c:	3303      	addmi	r3, #3
 800064e:	109b      	asrs	r3, r3, #2
 8000650:	9300      	str	r3, [sp, #0]
	for(vu32 i=0; i < len; i++)
 8000652:	2300      	movs	r3, #0
 8000654:	9301      	str	r3, [sp, #4]
 8000656:	9901      	ldr	r1, [sp, #4]
 8000658:	9b00      	ldr	r3, [sp, #0]
 800065a:	4299      	cmp	r1, r3
 800065c:	d301      	bcc.n	8000662 <LoopCopyDataInit+0x22>
}
 800065e:	b002      	add	sp, #8
 8000660:	4770      	bx	lr
		dst[i] = src[i];
 8000662:	9901      	ldr	r1, [sp, #4]
 8000664:	9b01      	ldr	r3, [sp, #4]
 8000666:	f850 1021 	ldr.w	r1, [r0, r1, lsl #2]
 800066a:	f842 1023 	str.w	r1, [r2, r3, lsl #2]
	for(vu32 i=0; i < len; i++)
 800066e:	9b01      	ldr	r3, [sp, #4]
 8000670:	3301      	adds	r3, #1
 8000672:	9301      	str	r3, [sp, #4]
 8000674:	e7ef      	b.n	8000656 <LoopCopyDataInit+0x16>
 8000676:	bf00      	nop
 8000678:	20000408 	.word	0x20000408
 800067c:	20000400 	.word	0x20000400
 8000680:	08004c68 	.word	0x08004c68

08000684 <LoopFillZerobss>:
{
	extern uint8_t _sbss asm("_sbss");
	extern uint8_t _ebss asm("_ebss");

	vu32* dst = (vu32*) &_sbss;
	vu32 len = (&_ebss - &_sbss) / 4;
 8000684:	4b0b      	ldr	r3, [pc, #44]	; (80006b4 <LoopFillZerobss+0x30>)
 8000686:	4a0c      	ldr	r2, [pc, #48]	; (80006b8 <LoopFillZerobss+0x34>)
 8000688:	1a9b      	subs	r3, r3, r2
{
 800068a:	b082      	sub	sp, #8
	vu32 len = (&_ebss - &_sbss) / 4;
 800068c:	bf48      	it	mi
 800068e:	3303      	addmi	r3, #3
 8000690:	109b      	asrs	r3, r3, #2

	for(vu32 i=0; i < len; i++)
 8000692:	2100      	movs	r1, #0
	vu32 len = (&_ebss - &_sbss) / 4;
 8000694:	9300      	str	r3, [sp, #0]
	for(vu32 i=0; i < len; i++)
 8000696:	9101      	str	r1, [sp, #4]
 8000698:	9801      	ldr	r0, [sp, #4]
 800069a:	9b00      	ldr	r3, [sp, #0]
 800069c:	4298      	cmp	r0, r3
 800069e:	d301      	bcc.n	80006a4 <LoopFillZerobss+0x20>
		dst[i] = 0;
}
 80006a0:	b002      	add	sp, #8
 80006a2:	4770      	bx	lr
		dst[i] = 0;
 80006a4:	9b01      	ldr	r3, [sp, #4]
 80006a6:	f842 1023 	str.w	r1, [r2, r3, lsl #2]
	for(vu32 i=0; i < len; i++)
 80006aa:	9b01      	ldr	r3, [sp, #4]
 80006ac:	3301      	adds	r3, #1
 80006ae:	9301      	str	r3, [sp, #4]
 80006b0:	e7f2      	b.n	8000698 <LoopFillZerobss+0x14>
 80006b2:	bf00      	nop
 80006b4:	20000e38 	.word	0x20000e38
 80006b8:	20000408 	.word	0x20000408

080006bc <__gcc_data_init>:
/**
  * @brief  Data section initialization.
  * @param  None.
  * @retval None.
  */
void __gcc_data_init(void) {
 80006bc:	b508      	push	{r3, lr}
	LoopFillZerobss();
 80006be:	f7ff ffe1 	bl	8000684 <LoopFillZerobss>
	LoopCopyDataInit();
}
 80006c2:	e8bd 4008 	ldmia.w	sp!, {r3, lr}
	LoopCopyDataInit();
 80006c6:	f7ff bfbb 	b.w	8000640 <LoopCopyDataInit>
	...

080006cc <SE_CRYPTO_Decrypt_Init>:
  * @param SE_FwType: Type of Fw Image.
  *        This parameter can be SE_FW_IMAGE_COMPLETE or SE_FW_IMAGE_PARTIAL.
  * @retval SE_ErrorStatus SE_SUCCESS if successful, SE_ERROR otherwise.
  */
SE_ErrorStatus SE_CRYPTO_Decrypt_Init(SE_FwRawHeaderTypeDef *pxSE_Metadata, uint32_t SE_FwType)
{
 80006cc:	b510      	push	{r4, lr}
#else
#error "The current example does not support the selected crypto scheme."
#endif /* SECBOOT_CRYPTO_SCHEME == SECBOOT_AES128_GCM_AES128_GCM_AES128_GCM */

  /* Check the pointers allocation */
  if (pxSE_Metadata == NULL)
 80006ce:	4604      	mov	r4, r0
 80006d0:	b198      	cbz	r0, 80006fa <SE_CRYPTO_Decrypt_Init+0x2e>
  if (memcmp(pxSE_Metadata->SFUMagic, SFUM_1, strlen(SFUM_1)) == 0)
 80006d2:	490c      	ldr	r1, [pc, #48]	; (8000704 <SE_CRYPTO_Decrypt_Init+0x38>)
 80006d4:	2204      	movs	r2, #4
 80006d6:	f003 fe3f 	bl	8004358 <memcmp>
 80006da:	b910      	cbnz	r0, 80006e2 <SE_CRYPTO_Decrypt_Init+0x16>
    SE_ReadKey_1(&(m_aSE_FirmwareKey[0]));
 80006dc:	480a      	ldr	r0, [pc, #40]	; (8000708 <SE_CRYPTO_Decrypt_Init+0x3c>)
 80006de:	f7ff fe8f 	bl	8000400 <SE_ReadKey_1>
  UNUSED(SE_FwType);
  /* Read the Symmetric Key */
  SE_CRYPTO_AES_ReadKey(pxSE_Metadata);

  /* Set flag field to default value */
  m_AESCBCctx.mFlags = E_SK_DEFAULT;
 80006e2:	4909      	ldr	r1, [pc, #36]	; (8000708 <SE_CRYPTO_Decrypt_Init+0x3c>)
 80006e4:	2300      	movs	r3, #0
 80006e6:	750b      	strb	r3, [r1, #20]

  /* Set key size to 16 (corresponding to AES-128) */
  m_AESCBCctx.mKeySize = (int32_t) SE_SYMKEY_LEN;
 80006e8:	2310      	movs	r3, #16

  /* Set iv size field to IvLength*/
  m_AESCBCctx.mIvSize = (int32_t) SE_IV_LEN;

  /* Initialize the operation, by passing the key and IV */
  cryptolib_status = AES_CBC_Decrypt_Init(&m_AESCBCctx, m_aSE_FirmwareKey, pxSE_Metadata->InitVector);
 80006ea:	f104 0254 	add.w	r2, r4, #84	; 0x54
 80006ee:	18c8      	adds	r0, r1, r3
  m_AESCBCctx.mKeySize = (int32_t) SE_SYMKEY_LEN;
 80006f0:	634b      	str	r3, [r1, #52]	; 0x34
  m_AESCBCctx.mIvSize = (int32_t) SE_IV_LEN;
 80006f2:	620b      	str	r3, [r1, #32]
  cryptolib_status = AES_CBC_Decrypt_Init(&m_AESCBCctx, m_aSE_FirmwareKey, pxSE_Metadata->InitVector);
 80006f4:	f001 fbb2 	bl	8001e5c <AES_CBC_Decrypt_Init>

  /* map the return code */
  if (AES_SUCCESS == cryptolib_status)
 80006f8:	b108      	cbz	r0, 80006fe <SE_CRYPTO_Decrypt_Init+0x32>
  {
    e_ret_status = SE_SUCCESS;
  }
  else
  {
    e_ret_status = SE_ERROR;
 80006fa:	4804      	ldr	r0, [pc, #16]	; (800070c <SE_CRYPTO_Decrypt_Init+0x40>)
#error "The current example does not support the selected crypto scheme."
#endif /* SECBOOT_CRYPTO_SCHEME */

  /* Return status*/
  return e_ret_status;
}
 80006fc:	bd10      	pop	{r4, pc}
    e_ret_status = SE_SUCCESS;
 80006fe:	4804      	ldr	r0, [pc, #16]	; (8000710 <SE_CRYPTO_Decrypt_Init+0x44>)
 8000700:	e7fc      	b.n	80006fc <SE_CRYPTO_Decrypt_Init+0x30>
 8000702:	bf00      	nop
 8000704:	08004524 	.word	0x08004524
 8000708:	20000424 	.word	0x20000424
 800070c:	00018799 	.word	0x00018799
 8000710:	0012310f 	.word	0x0012310f

08000714 <SE_CRYPTO_Decrypt_Append>:
  * @param pOutputSize: pointer to Output Size (bytes).
  * @retval SE_ErrorStatus SE_SUCCESS if successful, SE_ERROR otherwise.
  */
SE_ErrorStatus SE_CRYPTO_Decrypt_Append(const uint8_t *pInputBuffer, int32_t InputSize, uint8_t *pOutputBuffer,
                                        int32_t *pOutputSize)
{
 8000714:	b507      	push	{r0, r1, r2, lr}
#if (SECBOOT_CRYPTO_SCHEME == SECBOOT_ECCDSA_WITH_AES128_CBC_SHA256)
  int32_t cryptolib_status;
#endif /* SECBOOT_ECCDSA_WITH_AES128_CBC_SHA256 */

  /* DecryptImageInDwlSlot() always starts by calling the Decrypt service with a 0 byte buffer */
  if (0 == InputSize)
 8000716:	b919      	cbnz	r1, 8000720 <SE_CRYPTO_Decrypt_Append+0xc>
  {
    /* Nothing to do but we must return a success for the decrypt operation to continue */
    return (SE_SUCCESS);
 8000718:	4808      	ldr	r0, [pc, #32]	; (800073c <SE_CRYPTO_Decrypt_Append+0x28>)
#error "The current example does not support the selected crypto scheme."
#endif /* SECBOOT_CRYPTO_SCHEME */

  /* Return status*/
  return e_ret_status;
}
 800071a:	b003      	add	sp, #12
 800071c:	f85d fb04 	ldr.w	pc, [sp], #4
  if ((pInputBuffer == NULL) || (pOutputBuffer == NULL) || (pOutputSize == NULL))
 8000720:	b150      	cbz	r0, 8000738 <SE_CRYPTO_Decrypt_Append+0x24>
 8000722:	b14a      	cbz	r2, 8000738 <SE_CRYPTO_Decrypt_Append+0x24>
 8000724:	b143      	cbz	r3, 8000738 <SE_CRYPTO_Decrypt_Append+0x24>
  cryptolib_status = AES_CBC_Decrypt_Append(&m_AESCBCctx, pInputBuffer, InputSize, pOutputBuffer, pOutputSize);
 8000726:	9300      	str	r3, [sp, #0]
 8000728:	4613      	mov	r3, r2
 800072a:	460a      	mov	r2, r1
 800072c:	4601      	mov	r1, r0
 800072e:	4804      	ldr	r0, [pc, #16]	; (8000740 <SE_CRYPTO_Decrypt_Append+0x2c>)
 8000730:	f001 fb97 	bl	8001e62 <AES_CBC_Decrypt_Append>
  if (AES_SUCCESS == cryptolib_status)
 8000734:	2800      	cmp	r0, #0
 8000736:	d0ef      	beq.n	8000718 <SE_CRYPTO_Decrypt_Append+0x4>
    e_ret_status = SE_ERROR;
 8000738:	4802      	ldr	r0, [pc, #8]	; (8000744 <SE_CRYPTO_Decrypt_Append+0x30>)
 800073a:	e7ee      	b.n	800071a <SE_CRYPTO_Decrypt_Append+0x6>
 800073c:	0012310f 	.word	0x0012310f
 8000740:	20000434 	.word	0x20000434
 8000744:	00018799 	.word	0x00018799

08000748 <SE_CRYPTO_Decrypt_Finish>:
  * @param pOutputBuffer: pointer to Output Buffer.
  * @param pOutputSize: pointer to Output Size (bytes).
  * @retval SE_ErrorStatus SE_SUCCESS if successful, SE_ERROR otherwise.
  */
SE_ErrorStatus SE_CRYPTO_Decrypt_Finish(uint8_t *pOutputBuffer, int32_t *pOutputSize)
{
 8000748:	b538      	push	{r3, r4, r5, lr}
 800074a:	460a      	mov	r2, r1
 800074c:	4c2b      	ldr	r4, [pc, #172]	; (80007fc <SE_CRYPTO_Decrypt_Finish+0xb4>)
  int32_t cryptolib_status;
#elif (SECBOOT_CRYPTO_SCHEME == SECBOOT_AES128_GCM_AES128_GCM_AES128_GCM)
#endif /* SECBOOT_ECCDSA_WITH_AES128_CBC_SHA256 */

  /* Check the pointers allocation */
  if ((pOutputBuffer == NULL) || (pOutputSize == NULL))
 800074e:	b100      	cbz	r0, 8000752 <SE_CRYPTO_Decrypt_Finish+0xa>
 8000750:	bb31      	cbnz	r1, 80007a0 <SE_CRYPTO_Decrypt_Finish+0x58>
  {
    /* Clean-up the key in RAM */
    SE_CLEAN_UP_FW_KEY();
 8000752:	f04f 23e0 	mov.w	r3, #3758153728	; 0xe000e000
 8000756:	f640 72ff 	movw	r2, #4095	; 0xfff
 800075a:	699b      	ldr	r3, [r3, #24]
 800075c:	fbb3 f2f2 	udiv	r2, r3, r2
 8000760:	ebc2 3202 	rsb	r2, r2, r2, lsl #12
 8000764:	1a9b      	subs	r3, r3, r2
 8000766:	4423      	add	r3, r4
 8000768:	4a25      	ldr	r2, [pc, #148]	; (8000800 <SE_CRYPTO_Decrypt_Finish+0xb8>)
 800076a:	f103 0110 	add.w	r1, r3, #16
 800076e:	f853 0b04 	ldr.w	r0, [r3], #4
 8000772:	f842 0b04 	str.w	r0, [r2], #4
 8000776:	428b      	cmp	r3, r1
 8000778:	d1f9      	bne.n	800076e <SE_CRYPTO_Decrypt_Finish+0x26>
 800077a:	f04f 23e0 	mov.w	r3, #3758153728	; 0xe000e000
 800077e:	f640 71ff 	movw	r1, #4095	; 0xfff
 8000782:	699b      	ldr	r3, [r3, #24]
 8000784:	fbb3 f1f1 	udiv	r1, r3, r1
 8000788:	ebc1 3101 	rsb	r1, r1, r1, lsl #12
 800078c:	1a59      	subs	r1, r3, r1
 800078e:	481d      	ldr	r0, [pc, #116]	; (8000804 <SE_CRYPTO_Decrypt_Finish+0xbc>)

    return e_ret_status;
 8000790:	4d1d      	ldr	r5, [pc, #116]	; (8000808 <SE_CRYPTO_Decrypt_Finish+0xc0>)
    SE_CLEAN_UP_FW_KEY();
 8000792:	f44f 728c 	mov.w	r2, #280	; 0x118
 8000796:	4421      	add	r1, r4
 8000798:	f003 fdee 	bl	8004378 <memcpy>
  /* Clean-up the key in RAM */
  SE_CLEAN_UP_FW_KEY();

  /* Return status*/
  return e_ret_status;
}
 800079c:	4628      	mov	r0, r5
 800079e:	bd38      	pop	{r3, r4, r5, pc}
  cryptolib_status = AES_CBC_Decrypt_Finish(&m_AESCBCctx, pOutputBuffer, pOutputSize);
 80007a0:	4601      	mov	r1, r0
 80007a2:	4818      	ldr	r0, [pc, #96]	; (8000804 <SE_CRYPTO_Decrypt_Finish+0xbc>)
    e_ret_status = SE_ERROR;
 80007a4:	4d19      	ldr	r5, [pc, #100]	; (800080c <SE_CRYPTO_Decrypt_Finish+0xc4>)
  cryptolib_status = AES_CBC_Decrypt_Finish(&m_AESCBCctx, pOutputBuffer, pOutputSize);
 80007a6:	f001 fc6e 	bl	8002086 <AES_CBC_Decrypt_Finish>
    e_ret_status = SE_ERROR;
 80007aa:	4b17      	ldr	r3, [pc, #92]	; (8000808 <SE_CRYPTO_Decrypt_Finish+0xc0>)
 80007ac:	2800      	cmp	r0, #0
 80007ae:	bf18      	it	ne
 80007b0:	461d      	movne	r5, r3
  SE_CLEAN_UP_FW_KEY();
 80007b2:	f04f 23e0 	mov.w	r3, #3758153728	; 0xe000e000
 80007b6:	f640 72ff 	movw	r2, #4095	; 0xfff
 80007ba:	699b      	ldr	r3, [r3, #24]
 80007bc:	fbb3 f2f2 	udiv	r2, r3, r2
 80007c0:	ebc2 3202 	rsb	r2, r2, r2, lsl #12
 80007c4:	1a9b      	subs	r3, r3, r2
 80007c6:	4423      	add	r3, r4
 80007c8:	4a0d      	ldr	r2, [pc, #52]	; (8000800 <SE_CRYPTO_Decrypt_Finish+0xb8>)
 80007ca:	f103 0110 	add.w	r1, r3, #16
 80007ce:	f853 0b04 	ldr.w	r0, [r3], #4
 80007d2:	f842 0b04 	str.w	r0, [r2], #4
 80007d6:	428b      	cmp	r3, r1
 80007d8:	d1f9      	bne.n	80007ce <SE_CRYPTO_Decrypt_Finish+0x86>
 80007da:	f04f 23e0 	mov.w	r3, #3758153728	; 0xe000e000
 80007de:	f640 71ff 	movw	r1, #4095	; 0xfff
 80007e2:	699b      	ldr	r3, [r3, #24]
 80007e4:	fbb3 f1f1 	udiv	r1, r3, r1
 80007e8:	ebc1 3101 	rsb	r1, r1, r1, lsl #12
 80007ec:	1a59      	subs	r1, r3, r1
 80007ee:	f44f 728c 	mov.w	r2, #280	; 0x118
 80007f2:	4421      	add	r1, r4
 80007f4:	4803      	ldr	r0, [pc, #12]	; (8000804 <SE_CRYPTO_Decrypt_Finish+0xbc>)
 80007f6:	f003 fdbf 	bl	8004378 <memcpy>
  return e_ret_status;
 80007fa:	e7cf      	b.n	800079c <SE_CRYPTO_Decrypt_Finish+0x54>
 80007fc:	08000500 	.word	0x08000500
 8000800:	20000424 	.word	0x20000424
 8000804:	20000434 	.word	0x20000434
 8000808:	00018799 	.word	0x00018799
 800080c:	0012310f 	.word	0x0012310f

08000810 <SE_CRYPTO_AuthenticateFW_Init>:
  /* Prevent unused argument(s) compilation warning */
  UNUSED(pxSE_Metadata);
  UNUSED(SE_FwType);

  /* Set the size of the desired hash digest: SHA-256 */
  m_SHA256ctx.mTagSize = CRL_SHA256_SIZE;
 8000810:	4809      	ldr	r0, [pc, #36]	; (8000838 <SE_CRYPTO_AuthenticateFW_Init+0x28>)
{
 8000812:	b508      	push	{r3, lr}
  m_SHA256ctx.mTagSize = CRL_SHA256_SIZE;
 8000814:	2320      	movs	r3, #32
 8000816:	f8c0 3130 	str.w	r3, [r0, #304]	; 0x130

  /* Set flag field to default value */
  m_SHA256ctx.mFlags = E_HASH_DEFAULT;
 800081a:	2300      	movs	r3, #0
 800081c:	f880 312c 	strb.w	r3, [r0, #300]	; 0x12c

  /* Initialize the HASH context */
  error_status = SHA256_Init(&m_SHA256ctx);
 8000820:	f500 7094 	add.w	r0, r0, #296	; 0x128
 8000824:	f001 fcc2 	bl	80021ac <SHA256_Init>
#error "The current example does not support the selected crypto scheme."
#endif /* SECBOOT_CRYPTO_SCHEME */

  /* Return status*/
  return e_ret_status;
}
 8000828:	4a04      	ldr	r2, [pc, #16]	; (800083c <SE_CRYPTO_AuthenticateFW_Init+0x2c>)
 800082a:	4b05      	ldr	r3, [pc, #20]	; (8000840 <SE_CRYPTO_AuthenticateFW_Init+0x30>)
 800082c:	2800      	cmp	r0, #0
 800082e:	bf0c      	ite	eq
 8000830:	4610      	moveq	r0, r2
 8000832:	4618      	movne	r0, r3
 8000834:	bd08      	pop	{r3, pc}
 8000836:	bf00      	nop
 8000838:	20000424 	.word	0x20000424
 800083c:	0012310f 	.word	0x0012310f
 8000840:	00018799 	.word	0x00018799

08000844 <SE_CRYPTO_AuthenticateFW_Append>:
  * @param pOutputSize: pointer to Output Size (bytes).
  * @retval SE_ErrorStatus SE_SUCCESS if successful, SE_ERROR otherwise.
  */
SE_ErrorStatus SE_CRYPTO_AuthenticateFW_Append(const uint8_t *pInputBuffer, int32_t InputSize, uint8_t *pOutputBuffer,
                                               int32_t *pOutputSize)
{
 8000844:	b508      	push	{r3, lr}
 8000846:	460a      	mov	r2, r1
  /* The parameters below are useless for the HASH but are needed for API compatibility with other procedures */
  (void)pOutputBuffer;
  (void)pOutputSize;

  /* Add data to be hashed */
  error_status = SHA256_Append(&m_SHA256ctx, pInputBuffer, InputSize);
 8000848:	4601      	mov	r1, r0
 800084a:	4805      	ldr	r0, [pc, #20]	; (8000860 <SE_CRYPTO_AuthenticateFW_Append+0x1c>)
 800084c:	f001 fc71 	bl	8002132 <SHA256_Append>
#error "The current example does not support the selected crypto scheme."
#endif /* SECBOOT_CRYPTO_SCHEME */

  /* Return status*/
  return e_ret_status;
}
 8000850:	4a04      	ldr	r2, [pc, #16]	; (8000864 <SE_CRYPTO_AuthenticateFW_Append+0x20>)
 8000852:	4b05      	ldr	r3, [pc, #20]	; (8000868 <SE_CRYPTO_AuthenticateFW_Append+0x24>)
 8000854:	2800      	cmp	r0, #0
 8000856:	bf0c      	ite	eq
 8000858:	4610      	moveq	r0, r2
 800085a:	4618      	movne	r0, r3
 800085c:	bd08      	pop	{r3, pc}
 800085e:	bf00      	nop
 8000860:	2000054c 	.word	0x2000054c
 8000864:	0012310f 	.word	0x0012310f
 8000868:	00018799 	.word	0x00018799

0800086c <SE_CRYPTO_AuthenticateFW_Finish>:
  * @param pOutputBuffer: pointer to Output Buffer.
  * @param pOutputSize: pointer to Output Size (bytes).
  * @retval SE_ErrorStatus SE_SUCCESS if successful, SE_ERROR otherwise.
  */
SE_ErrorStatus SE_CRYPTO_AuthenticateFW_Finish(uint8_t *pOutputBuffer, int32_t *pOutputSize)
{
 800086c:	b508      	push	{r3, lr}
 800086e:	460a      	mov	r2, r1
  e_ret_status = SE_CRYPTO_Encrypt_Finish(pOutputBuffer, pOutputSize);
#elif ( (SECBOOT_CRYPTO_SCHEME == SECBOOT_ECCDSA_WITH_AES128_CBC_SHA256) || (SECBOOT_CRYPTO_SCHEME == SECBOOT_ECCDSA_WITHOUT_ENCRYPT_SHA256) )
  int32_t error_status;

  /* Add data to be hashed */
  error_status = SHA256_Finish(&m_SHA256ctx, pOutputBuffer, pOutputSize);
 8000870:	4601      	mov	r1, r0
 8000872:	4805      	ldr	r0, [pc, #20]	; (8000888 <SE_CRYPTO_AuthenticateFW_Finish+0x1c>)
 8000874:	f001 fd27 	bl	80022c6 <SHA256_Finish>
#error "The current example does not support the selected crypto scheme."
#endif /* SECBOOT_CRYPTO_SCHEME */

  /* Return status*/
  return e_ret_status;
}
 8000878:	4a04      	ldr	r2, [pc, #16]	; (800088c <SE_CRYPTO_AuthenticateFW_Finish+0x20>)
 800087a:	4b05      	ldr	r3, [pc, #20]	; (8000890 <SE_CRYPTO_AuthenticateFW_Finish+0x24>)
 800087c:	2800      	cmp	r0, #0
 800087e:	bf0c      	ite	eq
 8000880:	4610      	moveq	r0, r2
 8000882:	4618      	movne	r0, r3
 8000884:	bd08      	pop	{r3, pc}
 8000886:	bf00      	nop
 8000888:	2000054c 	.word	0x2000054c
 800088c:	0012310f 	.word	0x0012310f
 8000890:	00018799 	.word	0x00018799

08000894 <SE_CRYPTO_Authenticate_Metadata>:
  *        Authenticates the header containing the Firmware metadata.
  * @param pxSE_Metadata: Firmware metadata.
  * @retval SE_ErrorStatus SE_SUCCESS if successful, SE_ERROR otherwise.
  */
SE_ErrorStatus SE_CRYPTO_Authenticate_Metadata(SE_FwRawHeaderTypeDef *pxSE_Metadata)
{
 8000894:	e92d 41f0 	stmdb	sp!, {r4, r5, r6, r7, r8, lr}
 8000898:	b0ae      	sub	sp, #184	; 0xb8
  /* the key to be used for crypto operations (as this is a pointer to m_aSE_FirmwareKey or m_aSE_PubKey it can be a
     local variable, the pointed data is protected) */
  uint8_t *pKey;
#elif ( (SECBOOT_CRYPTO_SCHEME == SECBOOT_ECCDSA_WITH_AES128_CBC_SHA256) || (SECBOOT_CRYPTO_SCHEME == SECBOOT_ECCDSA_WITHOUT_ENCRYPT_SHA256) )
  int32_t status;
  ECDSAsignature_stt *sign = NULL;
 800089a:	2300      	movs	r3, #0
  /* Proceed with ECC signature generation */
  EC_stt EC_st;
  /* Structure that will contain the public key, please note that the public key
    * is just a point on the curve, hence the name ECpoint_stt
    */
  ECpoint_stt *PubKey = NULL;
 800089c:	e9cd 3302 	strd	r3, r3, [sp, #8]
  uint8_t *pSign;             /* Reference MAC (ECCDSA signed SHA256 of the FW metadata) */
  const uint8_t *pPub_x;
  const uint8_t *pPub_y;
  /* buffer for sha256 computing */
  uint8_t MessageDigest[CRL_SHA256_SIZE];
  int32_t MessageDigestLength = 0;
 80008a0:	9304      	str	r3, [sp, #16]
  /* the key to be used for crypto operations (as this is a pointer to m_aSE_FirmwareKey or m_aSE_PubKey it can be a
     local variable, the pointed data is protected) */
  uint8_t *pKey;
#endif /* SECBOOT_CRYPTO_SCHEME */

  if (NULL == pxSE_Metadata)
 80008a2:	4607      	mov	r7, r0
 80008a4:	2800      	cmp	r0, #0
 80008a6:	f000 80ba 	beq.w	8000a1e <SE_CRYPTO_Authenticate_Metadata+0x18a>
  if (memcmp(pxSE_Metadata->SFUMagic, SFUM_1, strlen(SFUM_1)) == 0)
 80008aa:	495e      	ldr	r1, [pc, #376]	; (8000a24 <SE_CRYPTO_Authenticate_Metadata+0x190>)
 80008ac:	2204      	movs	r2, #4
 80008ae:	f003 fd53 	bl	8004358 <memcmp>
 80008b2:	b910      	cbnz	r0, 80008ba <SE_CRYPTO_Authenticate_Metadata+0x26>
    SE_ReadKey_1_Pub(paSE_PubKey);
 80008b4:	485c      	ldr	r0, [pc, #368]	; (8000a28 <SE_CRYPTO_Authenticate_Metadata+0x194>)
 80008b6:	f7ff fdb8 	bl	800042a <SE_ReadKey_1_Pub>
  error_status = SHA256_Init(&P_pSHA256ctx);
 80008ba:	ad11      	add	r5, sp, #68	; 0x44
  P_pSHA256ctx.mTagSize = CRL_SHA256_SIZE;
 80008bc:	2420      	movs	r4, #32
  P_pSHA256ctx.mFlags = E_HASH_DEFAULT;
 80008be:	2300      	movs	r3, #0
  error_status = SHA256_Init(&P_pSHA256ctx);
 80008c0:	4628      	mov	r0, r5
  P_pSHA256ctx.mTagSize = CRL_SHA256_SIZE;
 80008c2:	9413      	str	r4, [sp, #76]	; 0x4c
  P_pSHA256ctx.mFlags = E_HASH_DEFAULT;
 80008c4:	f88d 3048 	strb.w	r3, [sp, #72]	; 0x48
  error_status = SHA256_Init(&P_pSHA256ctx);
 80008c8:	f001 fc70 	bl	80021ac <SHA256_Init>
  if (error_status == HASH_SUCCESS)
 80008cc:	b958      	cbnz	r0, 80008e6 <SE_CRYPTO_Authenticate_Metadata+0x52>
    error_status = SHA256_Append(&P_pSHA256ctx,
 80008ce:	2280      	movs	r2, #128	; 0x80
 80008d0:	4639      	mov	r1, r7
 80008d2:	4628      	mov	r0, r5
 80008d4:	f001 fc2d 	bl	8002132 <SHA256_Append>
    if (error_status == HASH_SUCCESS)
 80008d8:	b928      	cbnz	r0, 80008e6 <SE_CRYPTO_Authenticate_Metadata+0x52>
      error_status = SHA256_Finish(&P_pSHA256ctx, MessageDigest, MessageDigestLength);
 80008da:	aa04      	add	r2, sp, #16
 80008dc:	a909      	add	r1, sp, #36	; 0x24
 80008de:	4628      	mov	r0, r5
 80008e0:	f001 fcf1 	bl	80022c6 <SHA256_Finish>
  status = SE_CRYPTO_SHA256_HASH_DigestCompute(pPayload,
                                               payloadSize,
                                               (uint8_t *)MessageDigest,
                                               &MessageDigestLength);

  if (status == HASH_SUCCESS)
 80008e4:	b108      	cbz	r0, 80008ea <SE_CRYPTO_Authenticate_Metadata+0x56>
  e_ret_status = SE_ERROR;
 80008e6:	4c51      	ldr	r4, [pc, #324]	; (8000a2c <SE_CRYPTO_Authenticate_Metadata+0x198>)
 80008e8:	e071      	b.n	80009ce <SE_CRYPTO_Authenticate_Metadata+0x13a>
  {
    /* We prepare the memory buffer structure */
    Crypto_Buffer.pmBuf =  preallocated_buffer;
    Crypto_Buffer.mUsed = 0;
    Crypto_Buffer.mSize = (int16_t) sizeof(preallocated_buffer);
 80008ea:	f44f 6300 	mov.w	r3, #2048	; 0x800
 80008ee:	9306      	str	r3, [sp, #24]
    EC_st.pmA = P_256_a;
 80008f0:	4b4f      	ldr	r3, [pc, #316]	; (8000a30 <SE_CRYPTO_Authenticate_Metadata+0x19c>)
    Crypto_Buffer.pmBuf =  preallocated_buffer;
 80008f2:	f8df 814c 	ldr.w	r8, [pc, #332]	; 8000a40 <SE_CRYPTO_Authenticate_Metadata+0x1ac>
    EC_st.pmA = P_256_a;
 80008f6:	9311      	str	r3, [sp, #68]	; 0x44
    EC_st.pmB = P_256_b;
 80008f8:	f103 0220 	add.w	r2, r3, #32
 80008fc:	9213      	str	r2, [sp, #76]	; 0x4c
    EC_st.pmP = P_256_p;
 80008fe:	f103 0240 	add.w	r2, r3, #64	; 0x40
 8000902:	9215      	str	r2, [sp, #84]	; 0x54
    EC_st.mNsize = (int32_t)sizeof(P_256_n);
    EC_st.mPsize = (int32_t)sizeof(P_256_p);
    EC_st.mGxsize = (int32_t)sizeof(P_256_Gx);
    EC_st.mGysize = (int32_t)sizeof(P_256_Gy);

    status = ECCinitEC(&EC_st, &Crypto_Buffer);
 8000904:	ae05      	add	r6, sp, #20
    EC_st.pmN = P_256_n;
 8000906:	f103 0260 	add.w	r2, r3, #96	; 0x60
 800090a:	9217      	str	r2, [sp, #92]	; 0x5c
    status = ECCinitEC(&EC_st, &Crypto_Buffer);
 800090c:	4631      	mov	r1, r6
    EC_st.pmGx = P_256_Gx;
 800090e:	f103 0280 	add.w	r2, r3, #128	; 0x80
    status = ECCinitEC(&EC_st, &Crypto_Buffer);
 8000912:	4628      	mov	r0, r5
    EC_st.pmGy = P_256_Gy;
 8000914:	33a0      	adds	r3, #160	; 0xa0
    Crypto_Buffer.pmBuf =  preallocated_buffer;
 8000916:	f8cd 8014 	str.w	r8, [sp, #20]
    EC_st.pmGx = P_256_Gx;
 800091a:	9219      	str	r2, [sp, #100]	; 0x64
    EC_st.pmGy = P_256_Gy;
 800091c:	931b      	str	r3, [sp, #108]	; 0x6c
    EC_st.mAsize = (int32_t)sizeof(P_256_a);
 800091e:	9412      	str	r4, [sp, #72]	; 0x48
    EC_st.mBsize = (int32_t)sizeof(P_256_b);
 8000920:	9414      	str	r4, [sp, #80]	; 0x50
    EC_st.mNsize = (int32_t)sizeof(P_256_n);
 8000922:	9418      	str	r4, [sp, #96]	; 0x60
    EC_st.mPsize = (int32_t)sizeof(P_256_p);
 8000924:	9416      	str	r4, [sp, #88]	; 0x58
    EC_st.mGxsize = (int32_t)sizeof(P_256_Gx);
 8000926:	941a      	str	r4, [sp, #104]	; 0x68
    EC_st.mGysize = (int32_t)sizeof(P_256_Gy);
 8000928:	941c      	str	r4, [sp, #112]	; 0x70
    status = ECCinitEC(&EC_st, &Crypto_Buffer);
 800092a:	f002 fd6c 	bl	8003406 <ECCinitEC>

    if (status == ECC_SUCCESS)
 800092e:	2800      	cmp	r0, #0
 8000930:	d1d9      	bne.n	80008e6 <SE_CRYPTO_Authenticate_Metadata+0x52>
    {
      status = ECCinitPoint(&PubKey, &EC_st, &Crypto_Buffer);
 8000932:	4629      	mov	r1, r5
 8000934:	4632      	mov	r2, r6
 8000936:	a803      	add	r0, sp, #12
 8000938:	f002 fe88 	bl	800364c <ECCinitPoint>
    }

    if (status == ECC_SUCCESS)
 800093c:	4601      	mov	r1, r0
 800093e:	2800      	cmp	r0, #0
 8000940:	d1d1      	bne.n	80008e6 <SE_CRYPTO_Authenticate_Metadata+0x52>
    {
      /* Point is initialized, now import the public key */
      (void)ECCsetPointCoordinate(PubKey, E_ECC_POINT_COORDINATE_X, pPub_x, 32);
 8000942:	4623      	mov	r3, r4
 8000944:	f1a8 0240 	sub.w	r2, r8, #64	; 0x40
 8000948:	9803      	ldr	r0, [sp, #12]
 800094a:	f002 ff07 	bl	800375c <ECCsetPointCoordinate>
      (void)ECCsetPointCoordinate(PubKey, E_ECC_POINT_COORDINATE_Y, pPub_y, 32);
 800094e:	f1a8 0220 	sub.w	r2, r8, #32
 8000952:	2101      	movs	r1, #1
 8000954:	9803      	ldr	r0, [sp, #12]
 8000956:	4623      	mov	r3, r4
 8000958:	f002 ff00 	bl	800375c <ECCsetPointCoordinate>
      /* Try to validate the Public Key. */
      status = ECCvalidatePubKey(PubKey, &EC_st, &Crypto_Buffer);
 800095c:	9803      	ldr	r0, [sp, #12]
 800095e:	4632      	mov	r2, r6
 8000960:	4629      	mov	r1, r5
 8000962:	f003 fbd1 	bl	8004108 <ECCvalidatePubKey>
    }

    if (status == ECC_SUCCESS)
 8000966:	2800      	cmp	r0, #0
 8000968:	d1bd      	bne.n	80008e6 <SE_CRYPTO_Authenticate_Metadata+0x52>
    {
      /* Public Key is validated, Initialize the signature object */
      status = ECDSAinitSign(&sign, &EC_st, &Crypto_Buffer);
 800096a:	4629      	mov	r1, r5
 800096c:	4632      	mov	r2, r6
 800096e:	a802      	add	r0, sp, #8
 8000970:	f003 f9e6 	bl	8003d40 <ECDSAinitSign>
    }

    if (status == ECC_SUCCESS)
 8000974:	4601      	mov	r1, r0
 8000976:	2800      	cmp	r0, #0
 8000978:	d1b5      	bne.n	80008e6 <SE_CRYPTO_Authenticate_Metadata+0x52>
    {
      /* Import the signature values */
      (void)ECDSAsetSignature(sign, E_ECDSA_SIGNATURE_R_VALUE, pSign_r, 32);
 800097a:	4623      	mov	r3, r4
 800097c:	f107 0280 	add.w	r2, r7, #128	; 0x80
 8000980:	9802      	ldr	r0, [sp, #8]
 8000982:	f003 fa2b 	bl	8003ddc <ECDSAsetSignature>
      (void)ECDSAsetSignature(sign, E_ECDSA_SIGNATURE_S_VALUE, pSign_s, 32);
 8000986:	4623      	mov	r3, r4
 8000988:	f107 02a0 	add.w	r2, r7, #160	; 0xa0
 800098c:	2101      	movs	r1, #1
 800098e:	9802      	ldr	r0, [sp, #8]

      /* Verify it */
      status = ECDSAverify(MessageDigest, MessageDigestLength, sign, &verctx, &Crypto_Buffer);
      if (status == SIGNATURE_VALID)
      {
        e_ret_status = SE_SUCCESS;
 8000990:	4c26      	ldr	r4, [pc, #152]	; (8000a2c <SE_CRYPTO_Authenticate_Metadata+0x198>)
      (void)ECDSAsetSignature(sign, E_ECDSA_SIGNATURE_S_VALUE, pSign_s, 32);
 8000992:	f003 fa23 	bl	8003ddc <ECDSAsetSignature>
      verctx.pmPubKey = PubKey;
 8000996:	9b03      	ldr	r3, [sp, #12]
      status = ECDSAverify(MessageDigest, MessageDigestLength, sign, &verctx, &Crypto_Buffer);
 8000998:	9a02      	ldr	r2, [sp, #8]
 800099a:	9904      	ldr	r1, [sp, #16]
      verctx.pmPubKey = PubKey;
 800099c:	9307      	str	r3, [sp, #28]
      status = ECDSAverify(MessageDigest, MessageDigestLength, sign, &verctx, &Crypto_Buffer);
 800099e:	9600      	str	r6, [sp, #0]
 80009a0:	ab07      	add	r3, sp, #28
 80009a2:	a809      	add	r0, sp, #36	; 0x24
      verctx.pmEC = &EC_st;
 80009a4:	9508      	str	r5, [sp, #32]
      status = ECDSAverify(MessageDigest, MessageDigestLength, sign, &verctx, &Crypto_Buffer);
 80009a6:	f003 fa30 	bl	8003e0a <ECDSAverify>
        e_ret_status = SE_SUCCESS;
 80009aa:	4b22      	ldr	r3, [pc, #136]	; (8000a34 <SE_CRYPTO_Authenticate_Metadata+0x1a0>)
 80009ac:	f240 32eb 	movw	r2, #1003	; 0x3eb
 80009b0:	4290      	cmp	r0, r2
 80009b2:	bf08      	it	eq
 80009b4:	461c      	moveq	r4, r3
      }
      /* release resource ...*/
      (void)ECDSAfreeSign(&sign, &Crypto_Buffer);
 80009b6:	4631      	mov	r1, r6
 80009b8:	a802      	add	r0, sp, #8
 80009ba:	f003 f9f8 	bl	8003dae <ECDSAfreeSign>
      (void)ECCfreePoint(&PubKey, &Crypto_Buffer);
 80009be:	4631      	mov	r1, r6
 80009c0:	a803      	add	r0, sp, #12
 80009c2:	f002 feac 	bl	800371e <ECCfreePoint>
      (void)ECCfreeEC(&EC_st, &Crypto_Buffer);
 80009c6:	4631      	mov	r1, r6
 80009c8:	4628      	mov	r0, r5
 80009ca:	f002 fe01 	bl	80035d0 <ECCfreeEC>
#if (SECBOOT_CRYPTO_SCHEME == SECBOOT_AES128_GCM_AES128_GCM_AES128_GCM)
  /* Symmetric key */
  SE_CLEAN_UP_FW_KEY();
#else
  /* ECC public key */
  SE_CLEAN_UP_PUB_KEY();
 80009ce:	f04f 23e0 	mov.w	r3, #3758153728	; 0xe000e000
 80009d2:	4919      	ldr	r1, [pc, #100]	; (8000a38 <SE_CRYPTO_Authenticate_Metadata+0x1a4>)
 80009d4:	699b      	ldr	r3, [r3, #24]
 80009d6:	f640 72ff 	movw	r2, #4095	; 0xfff
 80009da:	fbb3 f2f2 	udiv	r2, r3, r2
 80009de:	ebc2 3202 	rsb	r2, r2, r2, lsl #12
 80009e2:	1a9b      	subs	r3, r3, r2
 80009e4:	440b      	add	r3, r1
 80009e6:	4a10      	ldr	r2, [pc, #64]	; (8000a28 <SE_CRYPTO_Authenticate_Metadata+0x194>)
 80009e8:	f103 0040 	add.w	r0, r3, #64	; 0x40
 80009ec:	f853 5b04 	ldr.w	r5, [r3], #4
 80009f0:	f842 5b04 	str.w	r5, [r2], #4
 80009f4:	4283      	cmp	r3, r0
 80009f6:	d1f9      	bne.n	80009ec <SE_CRYPTO_Authenticate_Metadata+0x158>
 80009f8:	f04f 23e0 	mov.w	r3, #3758153728	; 0xe000e000
 80009fc:	480f      	ldr	r0, [pc, #60]	; (8000a3c <SE_CRYPTO_Authenticate_Metadata+0x1a8>)
 80009fe:	699a      	ldr	r2, [r3, #24]
 8000a00:	f640 73ff 	movw	r3, #4095	; 0xfff
 8000a04:	fbb2 f3f3 	udiv	r3, r2, r3
 8000a08:	ebc3 3303 	rsb	r3, r3, r3, lsl #12
 8000a0c:	1ad3      	subs	r3, r2, r3
 8000a0e:	4419      	add	r1, r3
 8000a10:	2274      	movs	r2, #116	; 0x74
 8000a12:	f003 fcb1 	bl	8004378 <memcpy>
#endif /* SECBOOT_CRYPTO_SCHEME */

  /* Return status*/
  return e_ret_status;
}
 8000a16:	4620      	mov	r0, r4
 8000a18:	b02e      	add	sp, #184	; 0xb8
 8000a1a:	e8bd 81f0 	ldmia.w	sp!, {r4, r5, r6, r7, r8, pc}
    return e_ret_status;
 8000a1e:	4c03      	ldr	r4, [pc, #12]	; (8000a2c <SE_CRYPTO_Authenticate_Metadata+0x198>)
 8000a20:	e7f9      	b.n	8000a16 <SE_CRYPTO_Authenticate_Metadata+0x182>
 8000a22:	bf00      	nop
 8000a24:	08004524 	.word	0x08004524
 8000a28:	200005c0 	.word	0x200005c0
 8000a2c:	00018799 	.word	0x00018799
 8000a30:	080043c0 	.word	0x080043c0
 8000a34:	0012310f 	.word	0x0012310f
 8000a38:	08000500 	.word	0x08000500
 8000a3c:	2000054c 	.word	0x2000054c
 8000a40:	20000600 	.word	0x20000600

08000a44 <__NVIC_SystemReset>:
  \details Acts as a special kind of Data Memory Barrier.
           It completes when all explicit memory accesses before this instruction complete.
 */
__STATIC_FORCEINLINE void __DSB(void)
{
  __ASM volatile ("dsb 0xF":::"memory");
 8000a44:	f3bf 8f4f 	dsb	sy
__NO_RETURN __STATIC_INLINE void __NVIC_SystemReset(void)
{
  __DSB();                                                          /* Ensure all outstanding memory accesses included
                                                                       buffered write are completed before reset */
  SCB->AIRCR  = (uint32_t)((0x5FAUL << SCB_AIRCR_VECTKEY_Pos)    |
                           (SCB->AIRCR & SCB_AIRCR_PRIGROUP_Msk) |
 8000a48:	4905      	ldr	r1, [pc, #20]	; (8000a60 <__NVIC_SystemReset+0x1c>)
  SCB->AIRCR  = (uint32_t)((0x5FAUL << SCB_AIRCR_VECTKEY_Pos)    |
 8000a4a:	4b06      	ldr	r3, [pc, #24]	; (8000a64 <__NVIC_SystemReset+0x20>)
                           (SCB->AIRCR & SCB_AIRCR_PRIGROUP_Msk) |
 8000a4c:	68ca      	ldr	r2, [r1, #12]
 8000a4e:	f402 62e0 	and.w	r2, r2, #1792	; 0x700
  SCB->AIRCR  = (uint32_t)((0x5FAUL << SCB_AIRCR_VECTKEY_Pos)    |
 8000a52:	4313      	orrs	r3, r2
 8000a54:	60cb      	str	r3, [r1, #12]
 8000a56:	f3bf 8f4f 	dsb	sy
                            SCB_AIRCR_SYSRESETREQ_Msk    );         /* Keep priority group unchanged */
  __DSB();                                                          /* Ensure completion of memory access */

  for(;;)                                                           /* wait until reset */
  {
    __NOP();
 8000a5a:	bf00      	nop
  for(;;)                                                           /* wait until reset */
 8000a5c:	e7fd      	b.n	8000a5a <__NVIC_SystemReset+0x16>
 8000a5e:	bf00      	nop
 8000a60:	e000ed00 	.word	0xe000ed00
 8000a64:	05fa0004 	.word	0x05fa0004

08000a68 <SE_LL_CRC_Config>:
  * @brief  Set CRC configuration and call HAL CRC initialization function.
  * @param  None.
  * @retval SE_ErrorStatus SE_SUCCESS if successful, SE_ERROR otherwise
  */
SE_ErrorStatus SE_LL_CRC_Config(void)
{
 8000a68:	b508      	push	{r3, lr}
  SE_ErrorStatus e_ret_status = SE_ERROR;

  CrcHandle.Instance = CRC;
 8000a6a:	4806      	ldr	r0, [pc, #24]	; (8000a84 <SE_LL_CRC_Config+0x1c>)
 8000a6c:	4b06      	ldr	r3, [pc, #24]	; (8000a88 <SE_LL_CRC_Config+0x20>)
 8000a6e:	6003      	str	r3, [r0, #0]
  /* CRC Init*/
  if (HAL_CRC_Init(&CrcHandle) == HAL_OK)
 8000a70:	f000 f8db 	bl	8000c2a <HAL_CRC_Init>
  {
    e_ret_status = SE_SUCCESS;
  }

  return e_ret_status;
}
 8000a74:	4a05      	ldr	r2, [pc, #20]	; (8000a8c <SE_LL_CRC_Config+0x24>)
 8000a76:	4b06      	ldr	r3, [pc, #24]	; (8000a90 <SE_LL_CRC_Config+0x28>)
 8000a78:	2800      	cmp	r0, #0
 8000a7a:	bf14      	ite	ne
 8000a7c:	4610      	movne	r0, r2
 8000a7e:	4618      	moveq	r0, r3
 8000a80:	bd08      	pop	{r3, pc}
 8000a82:	bf00      	nop
 8000a84:	20000e00 	.word	0x20000e00
 8000a88:	40023000 	.word	0x40023000
 8000a8c:	00018799 	.word	0x00018799
 8000a90:	0012310f 	.word	0x0012310f

08000a94 <SE_LL_FLASH_Erase>:
  * @param  pStart: pointer to  user flash area
  * @param  Length: number of bytes.
  * @retval SE_ErrorStatus SE_SUCCESS if successful, SE_ERROR otherwise.
  */
SE_ErrorStatus SE_LL_FLASH_Erase(uint8_t *pStart, uint32_t Length)
{
 8000a94:	b530      	push	{r4, r5, lr}
 8000a96:	b087      	sub	sp, #28
  uint32_t sector_error = 0U;
 8000a98:	2300      	movs	r3, #0
 8000a9a:	9300      	str	r3, [sp, #0]
{
 8000a9c:	4604      	mov	r4, r0
 8000a9e:	460d      	mov	r5, r1
  uint32_t start = (uint32_t)pStart;
  FLASH_EraseInitTypeDef p_erase_init;
  SE_ErrorStatus e_ret_status = SE_SUCCESS;

  /* Unlock the Flash to enable the flash control register access *************/
  if (HAL_FLASH_Unlock() == HAL_OK)
 8000aa0:	f000 f954 	bl	8000d4c <HAL_FLASH_Unlock>
 8000aa4:	4603      	mov	r3, r0
 8000aa6:	bb28      	cbnz	r0, 8000af4 <SE_LL_FLASH_Erase+0x60>
  {
    /* Fill EraseInit structure*/
    p_erase_init.TypeErase     = FLASH_TYPEERASE_SECTORS;
    p_erase_init.VoltageRange  = FLASH_VOLTAGE_RANGE_3;
 8000aa8:	2202      	movs	r2, #2
  */
static uint32_t SE_LL_GetSector(uint32_t Address)
{
  uint32_t sector = 0;

  while (Address >= FlashSectorsAddress[sector + 1])
 8000aaa:	4913      	ldr	r1, [pc, #76]	; (8000af8 <SE_LL_FLASH_Erase+0x64>)
    p_erase_init.TypeErase     = FLASH_TYPEERASE_SECTORS;
 8000aac:	9001      	str	r0, [sp, #4]
    p_erase_init.VoltageRange  = FLASH_VOLTAGE_RANGE_3;
 8000aae:	9205      	str	r2, [sp, #20]
  while (Address >= FlashSectorsAddress[sector + 1])
 8000ab0:	461a      	mov	r2, r3
 8000ab2:	3301      	adds	r3, #1
 8000ab4:	f851 0023 	ldr.w	r0, [r1, r3, lsl #2]
 8000ab8:	4284      	cmp	r4, r0
 8000aba:	d2f9      	bcs.n	8000ab0 <SE_LL_FLASH_Erase+0x1c>
    p_erase_init.NbSectors     = SE_LL_GetSector(start + Length - 1U) - p_erase_init.Sector + 1U;
 8000abc:	3d01      	subs	r5, #1
    p_erase_init.Sector        = SE_LL_GetSector(start);
 8000abe:	9203      	str	r2, [sp, #12]
    p_erase_init.NbSectors     = SE_LL_GetSector(start + Length - 1U) - p_erase_init.Sector + 1U;
 8000ac0:	4425      	add	r5, r4
  uint32_t sector = 0;
 8000ac2:	2300      	movs	r3, #0
  while (Address >= FlashSectorsAddress[sector + 1])
 8000ac4:	4618      	mov	r0, r3
 8000ac6:	3301      	adds	r3, #1
 8000ac8:	f851 4023 	ldr.w	r4, [r1, r3, lsl #2]
 8000acc:	42a5      	cmp	r5, r4
 8000ace:	d2f9      	bcs.n	8000ac4 <SE_LL_FLASH_Erase+0x30>
    p_erase_init.NbSectors     = SE_LL_GetSector(start + Length - 1U) - p_erase_init.Sector + 1U;
 8000ad0:	f1c2 0201 	rsb	r2, r2, #1
 8000ad4:	4402      	add	r2, r0
    if (HAL_FLASHEx_Erase(&p_erase_init, &sector_error) != HAL_OK)
 8000ad6:	4669      	mov	r1, sp
 8000ad8:	a801      	add	r0, sp, #4
    p_erase_init.NbSectors     = SE_LL_GetSector(start + Length - 1U) - p_erase_init.Sector + 1U;
 8000ada:	9204      	str	r2, [sp, #16]
    if (HAL_FLASHEx_Erase(&p_erase_init, &sector_error) != HAL_OK)
 8000adc:	f000 fa24 	bl	8000f28 <HAL_FLASHEx_Erase>
      e_ret_status = SE_ERROR;
 8000ae0:	4c06      	ldr	r4, [pc, #24]	; (8000afc <SE_LL_FLASH_Erase+0x68>)
 8000ae2:	4b07      	ldr	r3, [pc, #28]	; (8000b00 <SE_LL_FLASH_Erase+0x6c>)
 8000ae4:	2800      	cmp	r0, #0
 8000ae6:	bf18      	it	ne
 8000ae8:	461c      	movne	r4, r3
    (void)HAL_FLASH_Lock();
 8000aea:	f000 f941 	bl	8000d70 <HAL_FLASH_Lock>
}
 8000aee:	4620      	mov	r0, r4
 8000af0:	b007      	add	sp, #28
 8000af2:	bd30      	pop	{r4, r5, pc}
    e_ret_status = SE_ERROR;
 8000af4:	4c02      	ldr	r4, [pc, #8]	; (8000b00 <SE_LL_FLASH_Erase+0x6c>)
  return e_ret_status;
 8000af6:	e7fa      	b.n	8000aee <SE_LL_FLASH_Erase+0x5a>
 8000af8:	08004480 	.word	0x08004480
 8000afc:	0012310f 	.word	0x0012310f
 8000b00:	00018799 	.word	0x00018799

08000b04 <SE_LL_FLASH_Write>:
{
 8000b04:	b570      	push	{r4, r5, r6, lr}
 8000b06:	460e      	mov	r6, r1
  uint32_t destination = (uint32_t)pDestination;
 8000b08:	4604      	mov	r4, r0
  if (Length == 0U)
 8000b0a:	b912      	cbnz	r2, 8000b12 <SE_LL_FLASH_Write+0xe>
    return SE_ERROR;
 8000b0c:	4c10      	ldr	r4, [pc, #64]	; (8000b50 <SE_LL_FLASH_Write+0x4c>)
}
 8000b0e:	4620      	mov	r0, r4
 8000b10:	bd70      	pop	{r4, r5, r6, pc}
    if ((destination >= SlotHeaderAdd[SLOT_ACTIVE_1 + i]) &&
 8000b12:	4b10      	ldr	r3, [pc, #64]	; (8000b54 <SE_LL_FLASH_Write+0x50>)
 8000b14:	4283      	cmp	r3, r0
 8000b16:	d8f9      	bhi.n	8000b0c <SE_LL_FLASH_Write+0x8>
        ((destination + Length) <= (SlotHeaderAdd[SLOT_ACTIVE_1 + i] + SFU_IMG_IMAGE_OFFSET)))
 8000b18:	1885      	adds	r5, r0, r2
 8000b1a:	f503 7300 	add.w	r3, r3, #512	; 0x200
    if ((destination >= SlotHeaderAdd[SLOT_ACTIVE_1 + i]) &&
 8000b1e:	429d      	cmp	r5, r3
 8000b20:	d8f4      	bhi.n	8000b0c <SE_LL_FLASH_Write+0x8>
  if (HAL_FLASH_Unlock() == HAL_OK)
 8000b22:	f000 f913 	bl	8000d4c <HAL_FLASH_Unlock>
 8000b26:	2800      	cmp	r0, #0
 8000b28:	d1f0      	bne.n	8000b0c <SE_LL_FLASH_Write+0x8>
 8000b2a:	3e01      	subs	r6, #1
      if (HAL_FLASH_Program(FLASH_TYPEPROGRAM_BYTE, (destination + i), *(uint8_t *)(source + i)) != HAL_OK)
 8000b2c:	2300      	movs	r3, #0
 8000b2e:	f816 2f01 	ldrb.w	r2, [r6, #1]!
 8000b32:	4621      	mov	r1, r4
 8000b34:	4618      	mov	r0, r3
 8000b36:	f000 f94d 	bl	8000dd4 <HAL_FLASH_Program>
 8000b3a:	b930      	cbnz	r0, 8000b4a <SE_LL_FLASH_Write+0x46>
    for (i = 0U; i < Length; i++)
 8000b3c:	3401      	adds	r4, #1
 8000b3e:	42a5      	cmp	r5, r4
 8000b40:	d1f4      	bne.n	8000b2c <SE_LL_FLASH_Write+0x28>
  SE_ErrorStatus ret = SE_SUCCESS;
 8000b42:	4c05      	ldr	r4, [pc, #20]	; (8000b58 <SE_LL_FLASH_Write+0x54>)
    (void)HAL_FLASH_Lock();
 8000b44:	f000 f914 	bl	8000d70 <HAL_FLASH_Lock>
 8000b48:	e7e1      	b.n	8000b0e <SE_LL_FLASH_Write+0xa>
        ret = SE_ERROR;
 8000b4a:	4c01      	ldr	r4, [pc, #4]	; (8000b50 <SE_LL_FLASH_Write+0x4c>)
 8000b4c:	e7fa      	b.n	8000b44 <SE_LL_FLASH_Write+0x40>
 8000b4e:	bf00      	nop
 8000b50:	00018799 	.word	0x00018799
 8000b54:	08010000 	.word	0x08010000
 8000b58:	0012310f 	.word	0x0012310f

08000b5c <SE_LL_FLASH_Read>:
{
 8000b5c:	b538      	push	{r3, r4, r5, lr}
    if ((source >= SlotHeaderAdd[SLOT_ACTIVE_1 + i]) &&
 8000b5e:	4c07      	ldr	r4, [pc, #28]	; (8000b7c <SE_LL_FLASH_Read+0x20>)
 8000b60:	428c      	cmp	r4, r1
{
 8000b62:	460b      	mov	r3, r1
    if ((source >= SlotHeaderAdd[SLOT_ACTIVE_1 + i]) &&
 8000b64:	d804      	bhi.n	8000b70 <SE_LL_FLASH_Read+0x14>
        ((source + Length) <= (SlotHeaderAdd[SLOT_ACTIVE_1 + i] + SFU_IMG_IMAGE_OFFSET)))
 8000b66:	4413      	add	r3, r2
 8000b68:	f504 7400 	add.w	r4, r4, #512	; 0x200
    if ((source >= SlotHeaderAdd[SLOT_ACTIVE_1 + i]) &&
 8000b6c:	42a3      	cmp	r3, r4
 8000b6e:	d901      	bls.n	8000b74 <SE_LL_FLASH_Read+0x18>
    return SE_ERROR;
 8000b70:	4803      	ldr	r0, [pc, #12]	; (8000b80 <SE_LL_FLASH_Read+0x24>)
}
 8000b72:	bd38      	pop	{r3, r4, r5, pc}
  (void)memcpy(pDestination, pSource, Length);
 8000b74:	f003 fc00 	bl	8004378 <memcpy>
  return e_ret_status;
 8000b78:	4802      	ldr	r0, [pc, #8]	; (8000b84 <SE_LL_FLASH_Read+0x28>)
 8000b7a:	e7fa      	b.n	8000b72 <SE_LL_FLASH_Read+0x16>
 8000b7c:	08010000 	.word	0x08010000
 8000b80:	00018799 	.word	0x00018799
 8000b84:	0012310f 	.word	0x0012310f

08000b88 <SE_LL_Buffer_in_ram>:
{
 8000b88:	b508      	push	{r3, lr}
  uint32_t addr_end = addr_start + Length - 1U;
 8000b8a:	1e4b      	subs	r3, r1, #1
 8000b8c:	4403      	add	r3, r0
  if ((Length != 0U) && (!((0xFFFFFFFFUL - addr_start) < Length))
 8000b8e:	b141      	cbz	r1, 8000ba2 <SE_LL_Buffer_in_ram+0x1a>
 8000b90:	43c2      	mvns	r2, r0
 8000b92:	428a      	cmp	r2, r1
 8000b94:	d305      	bcc.n	8000ba2 <SE_LL_Buffer_in_ram+0x1a>
      && (addr_start >= SRAM1_BASE) && (addr_end < 0x2004FFFFU))
 8000b96:	f1b0 5f00 	cmp.w	r0, #536870912	; 0x20000000
 8000b9a:	d302      	bcc.n	8000ba2 <SE_LL_Buffer_in_ram+0x1a>
 8000b9c:	4a03      	ldr	r2, [pc, #12]	; (8000bac <SE_LL_Buffer_in_ram+0x24>)
 8000b9e:	4293      	cmp	r3, r2
 8000ba0:	d301      	bcc.n	8000ba6 <SE_LL_Buffer_in_ram+0x1e>
    NVIC_SystemReset();
 8000ba2:	f7ff ff4f 	bl	8000a44 <__NVIC_SystemReset>
}
 8000ba6:	4802      	ldr	r0, [pc, #8]	; (8000bb0 <SE_LL_Buffer_in_ram+0x28>)
 8000ba8:	bd08      	pop	{r3, pc}
 8000baa:	bf00      	nop
 8000bac:	2004ffff 	.word	0x2004ffff
 8000bb0:	0012310f 	.word	0x0012310f

08000bb4 <SE_LL_Buffer_in_SBSFU_ram>:
{
 8000bb4:	b508      	push	{r3, lr}
  uint32_t addr_end = addr_start + Length - 1U;
 8000bb6:	1e4b      	subs	r3, r1, #1
 8000bb8:	4403      	add	r3, r0
  if ((Length != 0U) && (!((0xFFFFFFFFUL - addr_start) < Length))
 8000bba:	b141      	cbz	r1, 8000bce <SE_LL_Buffer_in_SBSFU_ram+0x1a>
 8000bbc:	43c2      	mvns	r2, r0
 8000bbe:	428a      	cmp	r2, r1
 8000bc0:	d305      	bcc.n	8000bce <SE_LL_Buffer_in_SBSFU_ram+0x1a>
      && ((addr_end  <= SB_REGION_RAM_END) && (addr_start >= SB_REGION_RAM_START)))
 8000bc2:	4a05      	ldr	r2, [pc, #20]	; (8000bd8 <SE_LL_Buffer_in_SBSFU_ram+0x24>)
 8000bc4:	4293      	cmp	r3, r2
 8000bc6:	d802      	bhi.n	8000bce <SE_LL_Buffer_in_SBSFU_ram+0x1a>
 8000bc8:	4b04      	ldr	r3, [pc, #16]	; (8000bdc <SE_LL_Buffer_in_SBSFU_ram+0x28>)
 8000bca:	4298      	cmp	r0, r3
 8000bcc:	d201      	bcs.n	8000bd2 <SE_LL_Buffer_in_SBSFU_ram+0x1e>
    NVIC_SystemReset();
 8000bce:	f7ff ff39 	bl	8000a44 <__NVIC_SystemReset>
}
 8000bd2:	4803      	ldr	r0, [pc, #12]	; (8000be0 <SE_LL_Buffer_in_SBSFU_ram+0x2c>)
 8000bd4:	bd08      	pop	{r3, pc}
 8000bd6:	bf00      	nop
 8000bd8:	2000bfff 	.word	0x2000bfff
 8000bdc:	20001000 	.word	0x20001000
 8000be0:	0012310f 	.word	0x0012310f

08000be4 <SE_LL_Buffer_part_of_SE_ram>:
{
 8000be4:	b508      	push	{r3, lr}
  if (((Length != 0U) && (!(((addr_start < SE_REGION_RAM_START) && (addr_end < SE_REGION_RAM_START)) ||
 8000be6:	b181      	cbz	r1, 8000c0a <SE_LL_Buffer_part_of_SE_ram+0x26>
 8000be8:	4a09      	ldr	r2, [pc, #36]	; (8000c10 <SE_LL_Buffer_part_of_SE_ram+0x2c>)
  uint32_t addr_end = addr_start + Length - 1U;
 8000bea:	1e4b      	subs	r3, r1, #1
  if (((Length != 0U) && (!(((addr_start < SE_REGION_RAM_START) && (addr_end < SE_REGION_RAM_START)) ||
 8000bec:	4282      	cmp	r2, r0
  uint32_t addr_end = addr_start + Length - 1U;
 8000bee:	4403      	add	r3, r0
  if (((Length != 0U) && (!(((addr_start < SE_REGION_RAM_START) && (addr_end < SE_REGION_RAM_START)) ||
 8000bf0:	d901      	bls.n	8000bf6 <SE_LL_Buffer_part_of_SE_ram+0x12>
 8000bf2:	429a      	cmp	r2, r3
 8000bf4:	d804      	bhi.n	8000c00 <SE_LL_Buffer_part_of_SE_ram+0x1c>
                            ((addr_start > SE_REGION_RAM_END) && (addr_end > SE_REGION_RAM_END)))))
 8000bf6:	4a07      	ldr	r2, [pc, #28]	; (8000c14 <SE_LL_Buffer_part_of_SE_ram+0x30>)
  if (((Length != 0U) && (!(((addr_start < SE_REGION_RAM_START) && (addr_end < SE_REGION_RAM_START)) ||
 8000bf8:	4282      	cmp	r2, r0
 8000bfa:	d204      	bcs.n	8000c06 <SE_LL_Buffer_part_of_SE_ram+0x22>
                            ((addr_start > SE_REGION_RAM_END) && (addr_end > SE_REGION_RAM_END)))))
 8000bfc:	429a      	cmp	r2, r3
 8000bfe:	d202      	bcs.n	8000c06 <SE_LL_Buffer_part_of_SE_ram+0x22>
      || ((0xFFFFFFFFUL - addr_start) < Length))
 8000c00:	43c0      	mvns	r0, r0
 8000c02:	4288      	cmp	r0, r1
 8000c04:	d201      	bcs.n	8000c0a <SE_LL_Buffer_part_of_SE_ram+0x26>
    NVIC_SystemReset();
 8000c06:	f7ff ff1d 	bl	8000a44 <__NVIC_SystemReset>
}
 8000c0a:	4803      	ldr	r0, [pc, #12]	; (8000c18 <SE_LL_Buffer_part_of_SE_ram+0x34>)
 8000c0c:	bd08      	pop	{r3, pc}
 8000c0e:	bf00      	nop
 8000c10:	20000000 	.word	0x20000000
 8000c14:	20000fff 	.word	0x20000fff
 8000c18:	00018799 	.word	0x00018799

08000c1c <SE_LL_CORE_Cleanup>:
  * The function is called  during SE_LOCK_RESTRICT_SERVICES.
  *
  */
void  SE_LL_CORE_Cleanup(void)
{
}
 8000c1c:	4770      	bx	lr
	...

08000c20 <SE_LL_Lock_Keys>:
  * @retval SE_ErrorStatus SE_SUCCESS if successful, SE_ERROR otherwise
  */
SE_ErrorStatus SE_LL_Lock_Keys(void)
{
  return SE_SUCCESS;
}
 8000c20:	4800      	ldr	r0, [pc, #0]	; (8000c24 <SE_LL_Lock_Keys+0x4>)
 8000c22:	4770      	bx	lr
 8000c24:	0012310f 	.word	0x0012310f

08000c28 <HAL_CRC_MspInit>:
  UNUSED(hcrc);

  /* NOTE : This function should not be modified, when the callback is needed,
            the HAL_CRC_MspInit can be implemented in the user file
   */
}
 8000c28:	4770      	bx	lr

08000c2a <HAL_CRC_Init>:
{
 8000c2a:	b510      	push	{r4, lr}
  if (hcrc == NULL)
 8000c2c:	4604      	mov	r4, r0
 8000c2e:	b150      	cbz	r0, 8000c46 <HAL_CRC_Init+0x1c>
  if (hcrc->State == HAL_CRC_STATE_RESET)
 8000c30:	7943      	ldrb	r3, [r0, #5]
 8000c32:	f003 02ff 	and.w	r2, r3, #255	; 0xff
 8000c36:	b913      	cbnz	r3, 8000c3e <HAL_CRC_Init+0x14>
    hcrc->Lock = HAL_UNLOCKED;
 8000c38:	7102      	strb	r2, [r0, #4]
    HAL_CRC_MspInit(hcrc);
 8000c3a:	f7ff fff5 	bl	8000c28 <HAL_CRC_MspInit>
  hcrc->State = HAL_CRC_STATE_READY;
 8000c3e:	2301      	movs	r3, #1
 8000c40:	7163      	strb	r3, [r4, #5]
  return HAL_OK;
 8000c42:	2000      	movs	r0, #0
}
 8000c44:	bd10      	pop	{r4, pc}
    return HAL_ERROR;
 8000c46:	2001      	movs	r0, #1
 8000c48:	e7fc      	b.n	8000c44 <HAL_CRC_Init+0x1a>
	...

08000c4c <FLASH_Program_DoubleWord>:
{
  /* Check the parameters */
  assert_param(IS_FLASH_ADDRESS(Address));
  
  /* If the previous operation is completed, proceed to program the new data */
  CLEAR_BIT(FLASH->CR, FLASH_CR_PSIZE);
 8000c4c:	4909      	ldr	r1, [pc, #36]	; (8000c74 <FLASH_Program_DoubleWord+0x28>)
{
 8000c4e:	b510      	push	{r4, lr}
  CLEAR_BIT(FLASH->CR, FLASH_CR_PSIZE);
 8000c50:	690c      	ldr	r4, [r1, #16]
 8000c52:	f424 7440 	bic.w	r4, r4, #768	; 0x300
 8000c56:	610c      	str	r4, [r1, #16]
  FLASH->CR |= FLASH_PSIZE_DOUBLE_WORD;
 8000c58:	690c      	ldr	r4, [r1, #16]
 8000c5a:	f444 7440 	orr.w	r4, r4, #768	; 0x300
 8000c5e:	610c      	str	r4, [r1, #16]
  FLASH->CR |= FLASH_CR_PG;
 8000c60:	690c      	ldr	r4, [r1, #16]
 8000c62:	f044 0401 	orr.w	r4, r4, #1
 8000c66:	610c      	str	r4, [r1, #16]

  /* Program first word */
  *(__IO uint32_t*)Address = (uint32_t)Data;
 8000c68:	6002      	str	r2, [r0, #0]
  __ASM volatile ("isb 0xF":::"memory");
 8000c6a:	f3bf 8f6f 	isb	sy
  /* Barrier to ensure programming is performed in 2 steps, in right order
    (independently of compiler optimization behavior) */
  __ISB();

  /* Program second word */
  *(__IO uint32_t*)(Address+4) = (uint32_t)(Data >> 32);
 8000c6e:	6043      	str	r3, [r0, #4]
}
 8000c70:	bd10      	pop	{r4, pc}
 8000c72:	bf00      	nop
 8000c74:	40023c00 	.word	0x40023c00

08000c78 <FLASH_Program_Word>:
{
  /* Check the parameters */
  assert_param(IS_FLASH_ADDRESS(Address));
  
  /* If the previous operation is completed, proceed to program the new data */
  CLEAR_BIT(FLASH->CR, FLASH_CR_PSIZE);
 8000c78:	4b07      	ldr	r3, [pc, #28]	; (8000c98 <FLASH_Program_Word+0x20>)
 8000c7a:	691a      	ldr	r2, [r3, #16]
 8000c7c:	f422 7240 	bic.w	r2, r2, #768	; 0x300
 8000c80:	611a      	str	r2, [r3, #16]
  FLASH->CR |= FLASH_PSIZE_WORD;
 8000c82:	691a      	ldr	r2, [r3, #16]
 8000c84:	f442 7200 	orr.w	r2, r2, #512	; 0x200
 8000c88:	611a      	str	r2, [r3, #16]
  FLASH->CR |= FLASH_CR_PG;
 8000c8a:	691a      	ldr	r2, [r3, #16]
 8000c8c:	f042 0201 	orr.w	r2, r2, #1
 8000c90:	611a      	str	r2, [r3, #16]

  *(__IO uint32_t*)Address = Data;
 8000c92:	6001      	str	r1, [r0, #0]
}
 8000c94:	4770      	bx	lr
 8000c96:	bf00      	nop
 8000c98:	40023c00 	.word	0x40023c00

08000c9c <FLASH_Program_HalfWord>:
{
  /* Check the parameters */
  assert_param(IS_FLASH_ADDRESS(Address));
  
  /* If the previous operation is completed, proceed to program the new data */
  CLEAR_BIT(FLASH->CR, FLASH_CR_PSIZE);
 8000c9c:	4b07      	ldr	r3, [pc, #28]	; (8000cbc <FLASH_Program_HalfWord+0x20>)
 8000c9e:	691a      	ldr	r2, [r3, #16]
 8000ca0:	f422 7240 	bic.w	r2, r2, #768	; 0x300
 8000ca4:	611a      	str	r2, [r3, #16]
  FLASH->CR |= FLASH_PSIZE_HALF_WORD;
 8000ca6:	691a      	ldr	r2, [r3, #16]
 8000ca8:	f442 7280 	orr.w	r2, r2, #256	; 0x100
 8000cac:	611a      	str	r2, [r3, #16]
  FLASH->CR |= FLASH_CR_PG;
 8000cae:	691a      	ldr	r2, [r3, #16]
 8000cb0:	f042 0201 	orr.w	r2, r2, #1
 8000cb4:	611a      	str	r2, [r3, #16]

  *(__IO uint16_t*)Address = Data;
 8000cb6:	8001      	strh	r1, [r0, #0]
}
 8000cb8:	4770      	bx	lr
 8000cba:	bf00      	nop
 8000cbc:	40023c00 	.word	0x40023c00

08000cc0 <FLASH_SetErrorCode>:
  * @brief  Set the specific FLASH error flag.
  * @retval None
  */
static void FLASH_SetErrorCode(void)
{ 
  if(__HAL_FLASH_GET_FLAG(FLASH_FLAG_WRPERR) != RESET)
 8000cc0:	4b20      	ldr	r3, [pc, #128]	; (8000d44 <FLASH_SetErrorCode+0x84>)
 8000cc2:	68da      	ldr	r2, [r3, #12]
 8000cc4:	06d0      	lsls	r0, r2, #27
 8000cc6:	d506      	bpl.n	8000cd6 <FLASH_SetErrorCode+0x16>
  {
   pFlash.ErrorCode |= HAL_FLASH_ERROR_WRP;
 8000cc8:	491f      	ldr	r1, [pc, #124]	; (8000d48 <FLASH_SetErrorCode+0x88>)
 8000cca:	69ca      	ldr	r2, [r1, #28]
 8000ccc:	f042 0210 	orr.w	r2, r2, #16
 8000cd0:	61ca      	str	r2, [r1, #28]
   
   /* Clear FLASH write protection error pending bit */
   __HAL_FLASH_CLEAR_FLAG(FLASH_FLAG_WRPERR);
 8000cd2:	2210      	movs	r2, #16
 8000cd4:	60da      	str	r2, [r3, #12]
  }
  
  if(__HAL_FLASH_GET_FLAG(FLASH_FLAG_PGAERR) != RESET)
 8000cd6:	68da      	ldr	r2, [r3, #12]
 8000cd8:	0691      	lsls	r1, r2, #26
 8000cda:	d506      	bpl.n	8000cea <FLASH_SetErrorCode+0x2a>
  {
   pFlash.ErrorCode |= HAL_FLASH_ERROR_PGA;
 8000cdc:	491a      	ldr	r1, [pc, #104]	; (8000d48 <FLASH_SetErrorCode+0x88>)
 8000cde:	69ca      	ldr	r2, [r1, #28]
 8000ce0:	f042 0208 	orr.w	r2, r2, #8
 8000ce4:	61ca      	str	r2, [r1, #28]
   
   /* Clear FLASH Programming alignment error pending bit */
   __HAL_FLASH_CLEAR_FLAG(FLASH_FLAG_PGAERR);
 8000ce6:	2220      	movs	r2, #32
 8000ce8:	60da      	str	r2, [r3, #12]
  }
  
  if(__HAL_FLASH_GET_FLAG(FLASH_FLAG_PGPERR) != RESET)
 8000cea:	4b16      	ldr	r3, [pc, #88]	; (8000d44 <FLASH_SetErrorCode+0x84>)
 8000cec:	68da      	ldr	r2, [r3, #12]
 8000cee:	0652      	lsls	r2, r2, #25
 8000cf0:	d506      	bpl.n	8000d00 <FLASH_SetErrorCode+0x40>
  {
    pFlash.ErrorCode |= HAL_FLASH_ERROR_PGP;
 8000cf2:	4915      	ldr	r1, [pc, #84]	; (8000d48 <FLASH_SetErrorCode+0x88>)
 8000cf4:	69ca      	ldr	r2, [r1, #28]
 8000cf6:	f042 0204 	orr.w	r2, r2, #4
 8000cfa:	61ca      	str	r2, [r1, #28]
    
    /* Clear FLASH Programming parallelism error pending bit */
    __HAL_FLASH_CLEAR_FLAG(FLASH_FLAG_PGPERR);
 8000cfc:	2240      	movs	r2, #64	; 0x40
 8000cfe:	60da      	str	r2, [r3, #12]
  }
  
  if(__HAL_FLASH_GET_FLAG(FLASH_FLAG_PGSERR) != RESET)
 8000d00:	68da      	ldr	r2, [r3, #12]
 8000d02:	0610      	lsls	r0, r2, #24
 8000d04:	d506      	bpl.n	8000d14 <FLASH_SetErrorCode+0x54>
  {
    pFlash.ErrorCode |= HAL_FLASH_ERROR_PGS;
 8000d06:	4910      	ldr	r1, [pc, #64]	; (8000d48 <FLASH_SetErrorCode+0x88>)
 8000d08:	69ca      	ldr	r2, [r1, #28]
 8000d0a:	f042 0202 	orr.w	r2, r2, #2
 8000d0e:	61ca      	str	r2, [r1, #28]
    
    /* Clear FLASH Programming sequence error pending bit */
    __HAL_FLASH_CLEAR_FLAG(FLASH_FLAG_PGSERR);
 8000d10:	2280      	movs	r2, #128	; 0x80
 8000d12:	60da      	str	r2, [r3, #12]
  }
#if defined(FLASH_SR_RDERR) 
  if(__HAL_FLASH_GET_FLAG(FLASH_FLAG_RDERR) != RESET)
 8000d14:	4b0b      	ldr	r3, [pc, #44]	; (8000d44 <FLASH_SetErrorCode+0x84>)
 8000d16:	68da      	ldr	r2, [r3, #12]
 8000d18:	05d1      	lsls	r1, r2, #23
 8000d1a:	d507      	bpl.n	8000d2c <FLASH_SetErrorCode+0x6c>
  {
    pFlash.ErrorCode |= HAL_FLASH_ERROR_RD;
 8000d1c:	490a      	ldr	r1, [pc, #40]	; (8000d48 <FLASH_SetErrorCode+0x88>)
 8000d1e:	69ca      	ldr	r2, [r1, #28]
 8000d20:	f042 0201 	orr.w	r2, r2, #1
 8000d24:	61ca      	str	r2, [r1, #28]
    
    /* Clear FLASH Proprietary readout protection error pending bit */
    __HAL_FLASH_CLEAR_FLAG(FLASH_FLAG_RDERR);
 8000d26:	f44f 7280 	mov.w	r2, #256	; 0x100
 8000d2a:	60da      	str	r2, [r3, #12]
  }
#endif /* FLASH_SR_RDERR */  
  if(__HAL_FLASH_GET_FLAG(FLASH_FLAG_OPERR) != RESET)
 8000d2c:	68da      	ldr	r2, [r3, #12]
 8000d2e:	0792      	lsls	r2, r2, #30
 8000d30:	d506      	bpl.n	8000d40 <FLASH_SetErrorCode+0x80>
  {
    pFlash.ErrorCode |= HAL_FLASH_ERROR_OPERATION;
 8000d32:	4905      	ldr	r1, [pc, #20]	; (8000d48 <FLASH_SetErrorCode+0x88>)
 8000d34:	69ca      	ldr	r2, [r1, #28]
 8000d36:	f042 0220 	orr.w	r2, r2, #32
 8000d3a:	61ca      	str	r2, [r1, #28]
    
    /* Clear FLASH Operation error pending bit */
    __HAL_FLASH_CLEAR_FLAG(FLASH_FLAG_OPERR);
 8000d3c:	2202      	movs	r2, #2
 8000d3e:	60da      	str	r2, [r3, #12]
  }
}
 8000d40:	4770      	bx	lr
 8000d42:	bf00      	nop
 8000d44:	40023c00 	.word	0x40023c00
 8000d48:	20000e08 	.word	0x20000e08

08000d4c <HAL_FLASH_Unlock>:
  if(READ_BIT(FLASH->CR, FLASH_CR_LOCK) != RESET)
 8000d4c:	4b06      	ldr	r3, [pc, #24]	; (8000d68 <HAL_FLASH_Unlock+0x1c>)
 8000d4e:	691a      	ldr	r2, [r3, #16]
 8000d50:	2a00      	cmp	r2, #0
    WRITE_REG(FLASH->KEYR, FLASH_KEY1);
 8000d52:	bfbf      	itttt	lt
 8000d54:	4a05      	ldrlt	r2, [pc, #20]	; (8000d6c <HAL_FLASH_Unlock+0x20>)
 8000d56:	605a      	strlt	r2, [r3, #4]
    WRITE_REG(FLASH->KEYR, FLASH_KEY2);
 8000d58:	f102 3288 	addlt.w	r2, r2, #2290649224	; 0x88888888
 8000d5c:	605a      	strlt	r2, [r3, #4]
    if(READ_BIT(FLASH->CR, FLASH_CR_LOCK) != RESET)
 8000d5e:	bfba      	itte	lt
 8000d60:	6918      	ldrlt	r0, [r3, #16]
  HAL_StatusTypeDef status = HAL_OK;
 8000d62:	0fc0      	lsrlt	r0, r0, #31
 8000d64:	2000      	movge	r0, #0
}
 8000d66:	4770      	bx	lr
 8000d68:	40023c00 	.word	0x40023c00
 8000d6c:	45670123 	.word	0x45670123

08000d70 <HAL_FLASH_Lock>:
  FLASH->CR |= FLASH_CR_LOCK;
 8000d70:	4a03      	ldr	r2, [pc, #12]	; (8000d80 <HAL_FLASH_Lock+0x10>)
 8000d72:	6913      	ldr	r3, [r2, #16]
 8000d74:	f043 4300 	orr.w	r3, r3, #2147483648	; 0x80000000
 8000d78:	6113      	str	r3, [r2, #16]
}
 8000d7a:	2000      	movs	r0, #0
 8000d7c:	4770      	bx	lr
 8000d7e:	bf00      	nop
 8000d80:	40023c00 	.word	0x40023c00

08000d84 <FLASH_WaitForLastOperation>:
  pFlash.ErrorCode = HAL_FLASH_ERROR_NONE;
 8000d84:	4b11      	ldr	r3, [pc, #68]	; (8000dcc <FLASH_WaitForLastOperation+0x48>)
{ 
 8000d86:	b570      	push	{r4, r5, r6, lr}
  pFlash.ErrorCode = HAL_FLASH_ERROR_NONE;
 8000d88:	2200      	movs	r2, #0
{ 
 8000d8a:	4604      	mov	r4, r0
  pFlash.ErrorCode = HAL_FLASH_ERROR_NONE;
 8000d8c:	61da      	str	r2, [r3, #28]
  tickstart = HAL_GetTick();
 8000d8e:	f000 fbfd 	bl	800158c <HAL_GetTick>
  while(__HAL_FLASH_GET_FLAG(FLASH_FLAG_BSY) != RESET) 
 8000d92:	4d0f      	ldr	r5, [pc, #60]	; (8000dd0 <FLASH_WaitForLastOperation+0x4c>)
  tickstart = HAL_GetTick();
 8000d94:	4606      	mov	r6, r0
  while(__HAL_FLASH_GET_FLAG(FLASH_FLAG_BSY) != RESET) 
 8000d96:	68eb      	ldr	r3, [r5, #12]
 8000d98:	03da      	lsls	r2, r3, #15
 8000d9a:	d40c      	bmi.n	8000db6 <FLASH_WaitForLastOperation+0x32>
  if (__HAL_FLASH_GET_FLAG(FLASH_FLAG_EOP) != RESET)
 8000d9c:	68eb      	ldr	r3, [r5, #12]
 8000d9e:	07db      	lsls	r3, r3, #31
    __HAL_FLASH_CLEAR_FLAG(FLASH_FLAG_EOP);
 8000da0:	bf44      	itt	mi
 8000da2:	2301      	movmi	r3, #1
 8000da4:	60eb      	strmi	r3, [r5, #12]
  if(__HAL_FLASH_GET_FLAG((FLASH_FLAG_OPERR | FLASH_FLAG_WRPERR | FLASH_FLAG_PGAERR | \
 8000da6:	68e8      	ldr	r0, [r5, #12]
 8000da8:	f410 70f9 	ands.w	r0, r0, #498	; 0x1f2
 8000dac:	d007      	beq.n	8000dbe <FLASH_WaitForLastOperation+0x3a>
    FLASH_SetErrorCode();
 8000dae:	f7ff ff87 	bl	8000cc0 <FLASH_SetErrorCode>
    return HAL_ERROR;
 8000db2:	2001      	movs	r0, #1
 8000db4:	e003      	b.n	8000dbe <FLASH_WaitForLastOperation+0x3a>
    if(Timeout != HAL_MAX_DELAY)
 8000db6:	1c61      	adds	r1, r4, #1
 8000db8:	d0ed      	beq.n	8000d96 <FLASH_WaitForLastOperation+0x12>
      if((Timeout == 0U)||((HAL_GetTick() - tickstart ) > Timeout))
 8000dba:	b90c      	cbnz	r4, 8000dc0 <FLASH_WaitForLastOperation+0x3c>
        return HAL_TIMEOUT;
 8000dbc:	2003      	movs	r0, #3
}  
 8000dbe:	bd70      	pop	{r4, r5, r6, pc}
      if((Timeout == 0U)||((HAL_GetTick() - tickstart ) > Timeout))
 8000dc0:	f000 fbe4 	bl	800158c <HAL_GetTick>
 8000dc4:	1b80      	subs	r0, r0, r6
 8000dc6:	42a0      	cmp	r0, r4
 8000dc8:	d9e5      	bls.n	8000d96 <FLASH_WaitForLastOperation+0x12>
 8000dca:	e7f7      	b.n	8000dbc <FLASH_WaitForLastOperation+0x38>
 8000dcc:	20000e08 	.word	0x20000e08
 8000dd0:	40023c00 	.word	0x40023c00

08000dd4 <HAL_FLASH_Program>:
{
 8000dd4:	b5f7      	push	{r0, r1, r2, r4, r5, r6, r7, lr}
  __HAL_LOCK(&pFlash);
 8000dd6:	4e20      	ldr	r6, [pc, #128]	; (8000e58 <HAL_FLASH_Program+0x84>)
{
 8000dd8:	9301      	str	r3, [sp, #4]
 8000dda:	4614      	mov	r4, r2
  __HAL_LOCK(&pFlash);
 8000ddc:	7e32      	ldrb	r2, [r6, #24]
 8000dde:	2a01      	cmp	r2, #1
{
 8000de0:	4607      	mov	r7, r0
 8000de2:	460d      	mov	r5, r1
  __HAL_LOCK(&pFlash);
 8000de4:	d035      	beq.n	8000e52 <HAL_FLASH_Program+0x7e>
 8000de6:	2201      	movs	r2, #1
  status = FLASH_WaitForLastOperation((uint32_t)FLASH_TIMEOUT_VALUE);
 8000de8:	f24c 3050 	movw	r0, #50000	; 0xc350
  __HAL_LOCK(&pFlash);
 8000dec:	7632      	strb	r2, [r6, #24]
  status = FLASH_WaitForLastOperation((uint32_t)FLASH_TIMEOUT_VALUE);
 8000dee:	f7ff ffc9 	bl	8000d84 <FLASH_WaitForLastOperation>
  if(status == HAL_OK)
 8000df2:	b9b8      	cbnz	r0, 8000e24 <HAL_FLASH_Program+0x50>
    if(TypeProgram == FLASH_TYPEPROGRAM_BYTE)
 8000df4:	9b01      	ldr	r3, [sp, #4]
 8000df6:	b9cf      	cbnz	r7, 8000e2c <HAL_FLASH_Program+0x58>
  CLEAR_BIT(FLASH->CR, FLASH_CR_PSIZE);
 8000df8:	4b18      	ldr	r3, [pc, #96]	; (8000e5c <HAL_FLASH_Program+0x88>)
 8000dfa:	691a      	ldr	r2, [r3, #16]
 8000dfc:	f422 7240 	bic.w	r2, r2, #768	; 0x300
 8000e00:	611a      	str	r2, [r3, #16]
  FLASH->CR |= FLASH_PSIZE_BYTE;
 8000e02:	691a      	ldr	r2, [r3, #16]
 8000e04:	611a      	str	r2, [r3, #16]
  FLASH->CR |= FLASH_CR_PG;
 8000e06:	691a      	ldr	r2, [r3, #16]
      FLASH_Program_Byte(Address, (uint8_t) Data);
 8000e08:	b2e4      	uxtb	r4, r4
  FLASH->CR |= FLASH_CR_PG;
 8000e0a:	f042 0201 	orr.w	r2, r2, #1
 8000e0e:	611a      	str	r2, [r3, #16]
  *(__IO uint8_t*)Address = Data;
 8000e10:	702c      	strb	r4, [r5, #0]
    status = FLASH_WaitForLastOperation((uint32_t)FLASH_TIMEOUT_VALUE);
 8000e12:	f24c 3050 	movw	r0, #50000	; 0xc350
 8000e16:	f7ff ffb5 	bl	8000d84 <FLASH_WaitForLastOperation>
    FLASH->CR &= (~FLASH_CR_PG);  
 8000e1a:	4a10      	ldr	r2, [pc, #64]	; (8000e5c <HAL_FLASH_Program+0x88>)
 8000e1c:	6913      	ldr	r3, [r2, #16]
 8000e1e:	f023 0301 	bic.w	r3, r3, #1
 8000e22:	6113      	str	r3, [r2, #16]
  __HAL_UNLOCK(&pFlash);
 8000e24:	2300      	movs	r3, #0
 8000e26:	7633      	strb	r3, [r6, #24]
}
 8000e28:	b003      	add	sp, #12
 8000e2a:	bdf0      	pop	{r4, r5, r6, r7, pc}
    else if(TypeProgram == FLASH_TYPEPROGRAM_HALFWORD)
 8000e2c:	2f01      	cmp	r7, #1
 8000e2e:	d104      	bne.n	8000e3a <HAL_FLASH_Program+0x66>
      FLASH_Program_HalfWord(Address, (uint16_t) Data);
 8000e30:	b2a1      	uxth	r1, r4
 8000e32:	4628      	mov	r0, r5
 8000e34:	f7ff ff32 	bl	8000c9c <FLASH_Program_HalfWord>
 8000e38:	e7eb      	b.n	8000e12 <HAL_FLASH_Program+0x3e>
    else if(TypeProgram == FLASH_TYPEPROGRAM_WORD)
 8000e3a:	2f02      	cmp	r7, #2
 8000e3c:	d104      	bne.n	8000e48 <HAL_FLASH_Program+0x74>
      FLASH_Program_Word(Address, (uint32_t) Data);
 8000e3e:	4621      	mov	r1, r4
 8000e40:	4628      	mov	r0, r5
 8000e42:	f7ff ff19 	bl	8000c78 <FLASH_Program_Word>
 8000e46:	e7e4      	b.n	8000e12 <HAL_FLASH_Program+0x3e>
      FLASH_Program_DoubleWord(Address, Data);
 8000e48:	4622      	mov	r2, r4
 8000e4a:	4628      	mov	r0, r5
 8000e4c:	f7ff fefe 	bl	8000c4c <FLASH_Program_DoubleWord>
 8000e50:	e7df      	b.n	8000e12 <HAL_FLASH_Program+0x3e>
  __HAL_LOCK(&pFlash);
 8000e52:	2002      	movs	r0, #2
 8000e54:	e7e8      	b.n	8000e28 <HAL_FLASH_Program+0x54>
 8000e56:	bf00      	nop
 8000e58:	20000e08 	.word	0x20000e08
 8000e5c:	40023c00 	.word	0x40023c00

08000e60 <FLASH_MassErase.constprop.0>:
  /* Check the parameters */
  assert_param(IS_VOLTAGERANGE(VoltageRange));
  assert_param(IS_FLASH_BANK(Banks));
  
  /* If the previous operation is completed, proceed to erase all sectors */
  CLEAR_BIT(FLASH->CR, FLASH_CR_PSIZE);
 8000e60:	4b07      	ldr	r3, [pc, #28]	; (8000e80 <FLASH_MassErase.constprop.0+0x20>)
 8000e62:	6919      	ldr	r1, [r3, #16]
 8000e64:	f421 7140 	bic.w	r1, r1, #768	; 0x300
 8000e68:	6119      	str	r1, [r3, #16]
  FLASH->CR |= FLASH_CR_MER;
 8000e6a:	6919      	ldr	r1, [r3, #16]
 8000e6c:	f041 0104 	orr.w	r1, r1, #4
 8000e70:	6119      	str	r1, [r3, #16]
  FLASH->CR |= FLASH_CR_STRT | ((uint32_t)VoltageRange <<8U);
 8000e72:	691a      	ldr	r2, [r3, #16]
 8000e74:	ea42 2000 	orr.w	r0, r2, r0, lsl #8
 8000e78:	f440 3080 	orr.w	r0, r0, #65536	; 0x10000
 8000e7c:	6118      	str	r0, [r3, #16]
}
 8000e7e:	4770      	bx	lr
 8000e80:	40023c00 	.word	0x40023c00

08000e84 <FLASH_Erase_Sector>:

  /* Check the parameters */
  assert_param(IS_FLASH_SECTOR(Sector));
  assert_param(IS_VOLTAGERANGE(VoltageRange));
  
  if(VoltageRange == FLASH_VOLTAGE_RANGE_1)
 8000e84:	b139      	cbz	r1, 8000e96 <FLASH_Erase_Sector+0x12>
  {
     tmp_psize = FLASH_PSIZE_BYTE;
  }
  else if(VoltageRange == FLASH_VOLTAGE_RANGE_2)
 8000e86:	2901      	cmp	r1, #1
 8000e88:	d01c      	beq.n	8000ec4 <FLASH_Erase_Sector+0x40>
  {
    tmp_psize = FLASH_PSIZE_WORD;
  }
  else
  {
    tmp_psize = FLASH_PSIZE_DOUBLE_WORD;
 8000e8a:	2902      	cmp	r1, #2
 8000e8c:	bf0c      	ite	eq
 8000e8e:	f44f 7100 	moveq.w	r1, #512	; 0x200
 8000e92:	f44f 7140 	movne.w	r1, #768	; 0x300
  }

  /* If the previous operation is completed, proceed to erase the sector */
  CLEAR_BIT(FLASH->CR, FLASH_CR_PSIZE);
 8000e96:	4b0d      	ldr	r3, [pc, #52]	; (8000ecc <FLASH_Erase_Sector+0x48>)
 8000e98:	691a      	ldr	r2, [r3, #16]
 8000e9a:	f422 7240 	bic.w	r2, r2, #768	; 0x300
 8000e9e:	611a      	str	r2, [r3, #16]
  FLASH->CR |= tmp_psize;
 8000ea0:	691a      	ldr	r2, [r3, #16]
 8000ea2:	4311      	orrs	r1, r2
 8000ea4:	6119      	str	r1, [r3, #16]
  CLEAR_BIT(FLASH->CR, FLASH_CR_SNB);
 8000ea6:	691a      	ldr	r2, [r3, #16]
 8000ea8:	f022 0278 	bic.w	r2, r2, #120	; 0x78
 8000eac:	611a      	str	r2, [r3, #16]
  FLASH->CR |= FLASH_CR_SER | (Sector << FLASH_CR_SNB_Pos);
 8000eae:	691a      	ldr	r2, [r3, #16]
 8000eb0:	ea42 00c0 	orr.w	r0, r2, r0, lsl #3
 8000eb4:	f040 0002 	orr.w	r0, r0, #2
 8000eb8:	6118      	str	r0, [r3, #16]
  FLASH->CR |= FLASH_CR_STRT;
 8000eba:	691a      	ldr	r2, [r3, #16]
 8000ebc:	f442 3280 	orr.w	r2, r2, #65536	; 0x10000
 8000ec0:	611a      	str	r2, [r3, #16]
}
 8000ec2:	4770      	bx	lr
    tmp_psize = FLASH_PSIZE_HALF_WORD;
 8000ec4:	f44f 7180 	mov.w	r1, #256	; 0x100
 8000ec8:	e7e5      	b.n	8000e96 <FLASH_Erase_Sector+0x12>
 8000eca:	bf00      	nop
 8000ecc:	40023c00 	.word	0x40023c00

08000ed0 <FLASH_FlushCaches>:
  * @retval None
  */
void FLASH_FlushCaches(void)
{
  /* Flush instruction cache  */
  if(READ_BIT(FLASH->ACR, FLASH_ACR_ICEN)!= RESET)
 8000ed0:	4b14      	ldr	r3, [pc, #80]	; (8000f24 <FLASH_FlushCaches+0x54>)
 8000ed2:	681a      	ldr	r2, [r3, #0]
 8000ed4:	0591      	lsls	r1, r2, #22
 8000ed6:	d50f      	bpl.n	8000ef8 <FLASH_FlushCaches+0x28>
  {
    /* Disable instruction cache  */
    __HAL_FLASH_INSTRUCTION_CACHE_DISABLE();
 8000ed8:	681a      	ldr	r2, [r3, #0]
 8000eda:	f422 7200 	bic.w	r2, r2, #512	; 0x200
 8000ede:	601a      	str	r2, [r3, #0]
    /* Reset instruction cache */
    __HAL_FLASH_INSTRUCTION_CACHE_RESET();
 8000ee0:	681a      	ldr	r2, [r3, #0]
 8000ee2:	f442 6200 	orr.w	r2, r2, #2048	; 0x800
 8000ee6:	601a      	str	r2, [r3, #0]
 8000ee8:	681a      	ldr	r2, [r3, #0]
 8000eea:	f422 6200 	bic.w	r2, r2, #2048	; 0x800
 8000eee:	601a      	str	r2, [r3, #0]
    /* Enable instruction cache */
    __HAL_FLASH_INSTRUCTION_CACHE_ENABLE();
 8000ef0:	681a      	ldr	r2, [r3, #0]
 8000ef2:	f442 7200 	orr.w	r2, r2, #512	; 0x200
 8000ef6:	601a      	str	r2, [r3, #0]
  }
  
  /* Flush data cache */
  if(READ_BIT(FLASH->ACR, FLASH_ACR_DCEN) != RESET)
 8000ef8:	4b0a      	ldr	r3, [pc, #40]	; (8000f24 <FLASH_FlushCaches+0x54>)
 8000efa:	681a      	ldr	r2, [r3, #0]
 8000efc:	0552      	lsls	r2, r2, #21
 8000efe:	d50f      	bpl.n	8000f20 <FLASH_FlushCaches+0x50>
  {
    /* Disable data cache  */
    __HAL_FLASH_DATA_CACHE_DISABLE();
 8000f00:	681a      	ldr	r2, [r3, #0]
 8000f02:	f422 6280 	bic.w	r2, r2, #1024	; 0x400
 8000f06:	601a      	str	r2, [r3, #0]
    /* Reset data cache */
    __HAL_FLASH_DATA_CACHE_RESET();
 8000f08:	681a      	ldr	r2, [r3, #0]
 8000f0a:	f442 5280 	orr.w	r2, r2, #4096	; 0x1000
 8000f0e:	601a      	str	r2, [r3, #0]
 8000f10:	681a      	ldr	r2, [r3, #0]
 8000f12:	f422 5280 	bic.w	r2, r2, #4096	; 0x1000
 8000f16:	601a      	str	r2, [r3, #0]
    /* Enable data cache */
    __HAL_FLASH_DATA_CACHE_ENABLE();
 8000f18:	681a      	ldr	r2, [r3, #0]
 8000f1a:	f442 6280 	orr.w	r2, r2, #1024	; 0x400
 8000f1e:	601a      	str	r2, [r3, #0]
  }
}
 8000f20:	4770      	bx	lr
 8000f22:	bf00      	nop
 8000f24:	40023c00 	.word	0x40023c00

08000f28 <HAL_FLASHEx_Erase>:
{
 8000f28:	e92d 43f8 	stmdb	sp!, {r3, r4, r5, r6, r7, r8, r9, lr}
  __HAL_LOCK(&pFlash);
 8000f2c:	f8df 8094 	ldr.w	r8, [pc, #148]	; 8000fc4 <HAL_FLASHEx_Erase+0x9c>
 8000f30:	f898 3018 	ldrb.w	r3, [r8, #24]
 8000f34:	2b01      	cmp	r3, #1
{
 8000f36:	4605      	mov	r5, r0
 8000f38:	460f      	mov	r7, r1
  __HAL_LOCK(&pFlash);
 8000f3a:	d03f      	beq.n	8000fbc <HAL_FLASHEx_Erase+0x94>
 8000f3c:	2301      	movs	r3, #1
  status = FLASH_WaitForLastOperation((uint32_t)FLASH_TIMEOUT_VALUE);
 8000f3e:	f24c 3050 	movw	r0, #50000	; 0xc350
  __HAL_LOCK(&pFlash);
 8000f42:	f888 3018 	strb.w	r3, [r8, #24]
  status = FLASH_WaitForLastOperation((uint32_t)FLASH_TIMEOUT_VALUE);
 8000f46:	f7ff ff1d 	bl	8000d84 <FLASH_WaitForLastOperation>
  if(status == HAL_OK)
 8000f4a:	4604      	mov	r4, r0
 8000f4c:	b9a0      	cbnz	r0, 8000f78 <HAL_FLASHEx_Erase+0x50>
    *SectorError = 0xFFFFFFFFU;
 8000f4e:	f04f 33ff 	mov.w	r3, #4294967295	; 0xffffffff
 8000f52:	603b      	str	r3, [r7, #0]
    if(pEraseInit->TypeErase == FLASH_TYPEERASE_MASSERASE)
 8000f54:	682b      	ldr	r3, [r5, #0]
 8000f56:	2b01      	cmp	r3, #1
 8000f58:	d114      	bne.n	8000f84 <HAL_FLASHEx_Erase+0x5c>
      FLASH_MassErase((uint8_t) pEraseInit->VoltageRange, pEraseInit->Banks);
 8000f5a:	7c28      	ldrb	r0, [r5, #16]
 8000f5c:	f7ff ff80 	bl	8000e60 <FLASH_MassErase.constprop.0>
      status = FLASH_WaitForLastOperation((uint32_t)FLASH_TIMEOUT_VALUE);
 8000f60:	f24c 3050 	movw	r0, #50000	; 0xc350
 8000f64:	f7ff ff0e 	bl	8000d84 <FLASH_WaitForLastOperation>
      FLASH->CR &= (~FLASH_MER_BIT);
 8000f68:	4a15      	ldr	r2, [pc, #84]	; (8000fc0 <HAL_FLASHEx_Erase+0x98>)
 8000f6a:	6913      	ldr	r3, [r2, #16]
 8000f6c:	f023 0304 	bic.w	r3, r3, #4
      status = FLASH_WaitForLastOperation((uint32_t)FLASH_TIMEOUT_VALUE);
 8000f70:	4604      	mov	r4, r0
      FLASH->CR &= (~FLASH_MER_BIT);
 8000f72:	6113      	str	r3, [r2, #16]
    FLASH_FlushCaches();    
 8000f74:	f7ff ffac 	bl	8000ed0 <FLASH_FlushCaches>
  __HAL_UNLOCK(&pFlash);
 8000f78:	2300      	movs	r3, #0
 8000f7a:	f888 3018 	strb.w	r3, [r8, #24]
}
 8000f7e:	4620      	mov	r0, r4
 8000f80:	e8bd 83f8 	ldmia.w	sp!, {r3, r4, r5, r6, r7, r8, r9, pc}
      for(index = pEraseInit->Sector; index < (pEraseInit->NbSectors + pEraseInit->Sector); index++)
 8000f84:	68ae      	ldr	r6, [r5, #8]
        CLEAR_BIT(FLASH->CR, (FLASH_CR_SER | FLASH_CR_SNB));
 8000f86:	f8df 9038 	ldr.w	r9, [pc, #56]	; 8000fc0 <HAL_FLASHEx_Erase+0x98>
      for(index = pEraseInit->Sector; index < (pEraseInit->NbSectors + pEraseInit->Sector); index++)
 8000f8a:	e9d5 2302 	ldrd	r2, r3, [r5, #8]
 8000f8e:	4413      	add	r3, r2
 8000f90:	42b3      	cmp	r3, r6
 8000f92:	d9ef      	bls.n	8000f74 <HAL_FLASHEx_Erase+0x4c>
        FLASH_Erase_Sector(index, (uint8_t) pEraseInit->VoltageRange);
 8000f94:	7c29      	ldrb	r1, [r5, #16]
 8000f96:	4630      	mov	r0, r6
 8000f98:	f7ff ff74 	bl	8000e84 <FLASH_Erase_Sector>
        status = FLASH_WaitForLastOperation((uint32_t)FLASH_TIMEOUT_VALUE);
 8000f9c:	f24c 3050 	movw	r0, #50000	; 0xc350
 8000fa0:	f7ff fef0 	bl	8000d84 <FLASH_WaitForLastOperation>
        CLEAR_BIT(FLASH->CR, (FLASH_CR_SER | FLASH_CR_SNB));
 8000fa4:	f8d9 3010 	ldr.w	r3, [r9, #16]
 8000fa8:	f023 037a 	bic.w	r3, r3, #122	; 0x7a
 8000fac:	f8c9 3010 	str.w	r3, [r9, #16]
        if(status != HAL_OK) 
 8000fb0:	b110      	cbz	r0, 8000fb8 <HAL_FLASHEx_Erase+0x90>
          *SectorError = index;
 8000fb2:	603e      	str	r6, [r7, #0]
        status = FLASH_WaitForLastOperation((uint32_t)FLASH_TIMEOUT_VALUE);
 8000fb4:	4604      	mov	r4, r0
          break;
 8000fb6:	e7dd      	b.n	8000f74 <HAL_FLASHEx_Erase+0x4c>
      for(index = pEraseInit->Sector; index < (pEraseInit->NbSectors + pEraseInit->Sector); index++)
 8000fb8:	3601      	adds	r6, #1
 8000fba:	e7e6      	b.n	8000f8a <HAL_FLASHEx_Erase+0x62>
  __HAL_LOCK(&pFlash);
 8000fbc:	2402      	movs	r4, #2
 8000fbe:	e7de      	b.n	8000f7e <HAL_FLASHEx_Erase+0x56>
 8000fc0:	40023c00 	.word	0x40023c00
 8000fc4:	20000e08 	.word	0x20000e08

08000fc8 <__NVIC_SystemReset>:
  __ASM volatile ("dsb 0xF":::"memory");
 8000fc8:	f3bf 8f4f 	dsb	sy
                           (SCB->AIRCR & SCB_AIRCR_PRIGROUP_Msk) |
 8000fcc:	4905      	ldr	r1, [pc, #20]	; (8000fe4 <__NVIC_SystemReset+0x1c>)
  SCB->AIRCR  = (uint32_t)((0x5FAUL << SCB_AIRCR_VECTKEY_Pos)    |
 8000fce:	4b06      	ldr	r3, [pc, #24]	; (8000fe8 <__NVIC_SystemReset+0x20>)
                           (SCB->AIRCR & SCB_AIRCR_PRIGROUP_Msk) |
 8000fd0:	68ca      	ldr	r2, [r1, #12]
 8000fd2:	f402 62e0 	and.w	r2, r2, #1792	; 0x700
  SCB->AIRCR  = (uint32_t)((0x5FAUL << SCB_AIRCR_VECTKEY_Pos)    |
 8000fd6:	4313      	orrs	r3, r2
 8000fd8:	60cb      	str	r3, [r1, #12]
 8000fda:	f3bf 8f4f 	dsb	sy
    __NOP();
 8000fde:	bf00      	nop
  for(;;)                                                           /* wait until reset */
 8000fe0:	e7fd      	b.n	8000fde <__NVIC_SystemReset+0x16>
 8000fe2:	bf00      	nop
 8000fe4:	e000ed00 	.word	0xe000ed00
 8000fe8:	05fa0004 	.word	0x05fa0004

08000fec <SE_CallGateService>:
   */
  static SE_LockStatus SE_LockRestrictedServices = SE_UNLOCKED;

  SE_ErrorStatus e_ret_status = SE_ERROR;

  switch (eID)
 8000fec:	2810      	cmp	r0, #16
{
 8000fee:	e92d 4f73 	stmdb	sp!, {r0, r1, r4, r5, r6, r8, r9, sl, fp, lr}
 8000ff2:	460c      	mov	r4, r1
  switch (eID)
 8000ff4:	d815      	bhi.n	8001022 <SE_CallGateService+0x36>
 8000ff6:	4db3      	ldr	r5, [pc, #716]	; (80012c4 <SE_CallGateService+0x2d8>)
 8000ff8:	2810      	cmp	r0, #16
 8000ffa:	d821      	bhi.n	8001040 <SE_CallGateService+0x54>
 8000ffc:	e8df f010 	tbh	[pc, r0, lsl #1]
 8001000:	00200031 	.word	0x00200031
 8001004:	00200020 	.word	0x00200020
 8001008:	0068003e 	.word	0x0068003e
 800100c:	00e500ae 	.word	0x00e500ae
 8001010:	016c0112 	.word	0x016c0112
 8001014:	00200020 	.word	0x00200020
 8001018:	00200020 	.word	0x00200020
 800101c:	00200020 	.word	0x00200020
 8001020:	01a3      	.short	0x01a3
 8001022:	2894      	cmp	r0, #148	; 0x94
 8001024:	f000 8205 	beq.w	8001432 <SE_CallGateService+0x446>
 8001028:	d80c      	bhi.n	8001044 <SE_CallGateService+0x58>
 800102a:	2892      	cmp	r0, #146	; 0x92
 800102c:	f8df 82a4 	ldr.w	r8, [pc, #676]	; 80012d4 <SE_CallGateService+0x2e8>
 8001030:	f000 81b1 	beq.w	8001396 <SE_CallGateService+0x3aa>
 8001034:	2893      	cmp	r0, #147	; 0x93
 8001036:	f000 81d5 	beq.w	80013e4 <SE_CallGateService+0x3f8>
 800103a:	2820      	cmp	r0, #32
 800103c:	f000 8211 	beq.w	8001462 <SE_CallGateService+0x476>
        }
        break;
      }
#endif /* KMS_ENABLED */
      /* Unspecified function ID -> Reset */
      NVIC_SystemReset();
 8001040:	f7ff ffc2 	bl	8000fc8 <__NVIC_SystemReset>
  switch (eID)
 8001044:	f5b0 7f80 	cmp.w	r0, #256	; 0x100
 8001048:	f000 81fe 	beq.w	8001448 <SE_CallGateService+0x45c>
 800104c:	f5b0 5f80 	cmp.w	r0, #4096	; 0x1000
 8001050:	d1f6      	bne.n	8001040 <SE_CallGateService+0x54>

      break;
    }
  }
  if ((e_ret_status == SE_ERROR) && (*peSE_Status == SE_OK))
 8001052:	4b9d      	ldr	r3, [pc, #628]	; (80012c8 <SE_CallGateService+0x2dc>)
 8001054:	6822      	ldr	r2, [r4, #0]
 8001056:	489d      	ldr	r0, [pc, #628]	; (80012cc <SE_CallGateService+0x2e0>)
 8001058:	429a      	cmp	r2, r3
  {
    *peSE_Status = SE_KO;
 800105a:	bf04      	itt	eq
 800105c:	4b9c      	ldreq	r3, [pc, #624]	; (80012d0 <SE_CallGateService+0x2e4>)
 800105e:	6023      	streq	r3, [r4, #0]
  }
  return e_ret_status;
 8001060:	e009      	b.n	8001076 <SE_CallGateService+0x8a>
      IS_SE_LOCKED_SERVICES();
 8001062:	682b      	ldr	r3, [r5, #0]
 8001064:	f1b3 3f55 	cmp.w	r3, #1431655765	; 0x55555555
 8001068:	d1ea      	bne.n	8001040 <SE_CallGateService+0x54>
      SE_SetSystemCoreClock(se_system_core_clock);
 800106a:	6810      	ldr	r0, [r2, #0]
 800106c:	f000 fa88 	bl	8001580 <SE_SetSystemCoreClock>
      *peSE_Status = SE_OK;
 8001070:	4b95      	ldr	r3, [pc, #596]	; (80012c8 <SE_CallGateService+0x2dc>)
      e_ret_status = SE_SUCCESS;
 8001072:	4898      	ldr	r0, [pc, #608]	; (80012d4 <SE_CallGateService+0x2e8>)
      *peSE_Status = SE_OK;
 8001074:	6023      	str	r3, [r4, #0]
}
 8001076:	b002      	add	sp, #8
 8001078:	e8bd 8f70 	ldmia.w	sp!, {r4, r5, r6, r8, r9, sl, fp, pc}
      IS_SE_LOCKED_SERVICES();
 800107c:	682b      	ldr	r3, [r5, #0]
 800107e:	f1b3 3f55 	cmp.w	r3, #1431655765	; 0x55555555
 8001082:	d1dd      	bne.n	8001040 <SE_CallGateService+0x54>
      se_FwType = va_arg(arguments, uint32_t);
 8001084:	e9d2 8900 	ldrd	r8, r9, [r2]
      if (SE_LL_CRC_Config() == SE_ERROR)
 8001088:	f7ff fcee 	bl	8000a68 <SE_LL_CRC_Config>
 800108c:	4b8f      	ldr	r3, [pc, #572]	; (80012cc <SE_CallGateService+0x2e0>)
 800108e:	4298      	cmp	r0, r3
 8001090:	d0df      	beq.n	8001052 <SE_CallGateService+0x66>
      if (SE_LL_Buffer_in_SBSFU_ram(p_x_se_Metadata, sizeof(*p_x_se_Metadata)) != SE_SUCCESS)
 8001092:	f44f 71a0 	mov.w	r1, #320	; 0x140
 8001096:	4640      	mov	r0, r8
 8001098:	f7ff fd8c 	bl	8000bb4 <SE_LL_Buffer_in_SBSFU_ram>
 800109c:	4b8d      	ldr	r3, [pc, #564]	; (80012d4 <SE_CallGateService+0x2e8>)
 800109e:	4298      	cmp	r0, r3
 80010a0:	4606      	mov	r6, r0
 80010a2:	d1d6      	bne.n	8001052 <SE_CallGateService+0x66>
      if ((se_FwType != SE_FW_IMAGE_COMPLETE) && (se_FwType != SE_FW_IMAGE_PARTIAL))
 80010a4:	f1b9 0f01 	cmp.w	r9, #1
 80010a8:	d8d3      	bhi.n	8001052 <SE_CallGateService+0x66>
      IS_SE_LOCKED_SERVICES();
 80010aa:	682b      	ldr	r3, [r5, #0]
 80010ac:	f1b3 3f55 	cmp.w	r3, #1431655765	; 0x55555555
 80010b0:	d1c6      	bne.n	8001040 <SE_CallGateService+0x54>
      if (SE_LL_Buffer_in_SBSFU_ram(p_x_se_Metadata, sizeof(*p_x_se_Metadata)) != SE_SUCCESS)
 80010b2:	f44f 71a0 	mov.w	r1, #320	; 0x140
 80010b6:	4640      	mov	r0, r8
 80010b8:	f7ff fd7c 	bl	8000bb4 <SE_LL_Buffer_in_SBSFU_ram>
 80010bc:	42b0      	cmp	r0, r6
 80010be:	d1c8      	bne.n	8001052 <SE_CallGateService+0x66>
      e_ret_status = SE_CRYPTO_Decrypt_Init(p_x_se_Metadata, se_FwType);
 80010c0:	4649      	mov	r1, r9
 80010c2:	4640      	mov	r0, r8
 80010c4:	f7ff fb02 	bl	80006cc <SE_CRYPTO_Decrypt_Init>
  if ((e_ret_status == SE_ERROR) && (*peSE_Status == SE_OK))
 80010c8:	4b80      	ldr	r3, [pc, #512]	; (80012cc <SE_CallGateService+0x2e0>)
 80010ca:	4298      	cmp	r0, r3
 80010cc:	d1d3      	bne.n	8001076 <SE_CallGateService+0x8a>
 80010ce:	e7c0      	b.n	8001052 <SE_CallGateService+0x66>
      IS_SE_LOCKED_SERVICES();
 80010d0:	682b      	ldr	r3, [r5, #0]
 80010d2:	f1b3 3f55 	cmp.w	r3, #1431655765	; 0x55555555
 80010d6:	d1b3      	bne.n	8001040 <SE_CallGateService+0x54>
      input_size = va_arg(arguments, int32_t);
 80010d8:	e9d2 8600 	ldrd	r8, r6, [r2]
      output_size = va_arg(arguments, int32_t *);
 80010dc:	e9d2 9a02 	ldrd	r9, sl, [r2, #8]
      if (SE_LL_CRC_Config() == SE_ERROR)
 80010e0:	f7ff fcc2 	bl	8000a68 <SE_LL_CRC_Config>
 80010e4:	4b79      	ldr	r3, [pc, #484]	; (80012cc <SE_CallGateService+0x2e0>)
 80010e6:	4298      	cmp	r0, r3
 80010e8:	d0b3      	beq.n	8001052 <SE_CallGateService+0x66>
      if (input_size <= 0)
 80010ea:	2e00      	cmp	r6, #0
 80010ec:	ddb1      	ble.n	8001052 <SE_CallGateService+0x66>
      if (SE_LL_Buffer_in_SBSFU_ram(input_buffer, (uint32_t)input_size) != SE_SUCCESS)
 80010ee:	4631      	mov	r1, r6
 80010f0:	4640      	mov	r0, r8
 80010f2:	f7ff fd5f 	bl	8000bb4 <SE_LL_Buffer_in_SBSFU_ram>
 80010f6:	4a77      	ldr	r2, [pc, #476]	; (80012d4 <SE_CallGateService+0x2e8>)
 80010f8:	4290      	cmp	r0, r2
 80010fa:	d1aa      	bne.n	8001052 <SE_CallGateService+0x66>
 80010fc:	9001      	str	r0, [sp, #4]
      if (SE_LL_Buffer_in_SBSFU_ram(output_size, sizeof(*output_size)) != SE_SUCCESS)
 80010fe:	2104      	movs	r1, #4
 8001100:	4650      	mov	r0, sl
 8001102:	f7ff fd57 	bl	8000bb4 <SE_LL_Buffer_in_SBSFU_ram>
 8001106:	9b01      	ldr	r3, [sp, #4]
 8001108:	4298      	cmp	r0, r3
 800110a:	4683      	mov	fp, r0
 800110c:	d1a1      	bne.n	8001052 <SE_CallGateService+0x66>
      if (SE_LL_Buffer_in_SBSFU_ram(output_buffer, (uint32_t)input_size) != SE_SUCCESS)
 800110e:	4631      	mov	r1, r6
 8001110:	4648      	mov	r0, r9
 8001112:	f7ff fd4f 	bl	8000bb4 <SE_LL_Buffer_in_SBSFU_ram>
 8001116:	4558      	cmp	r0, fp
 8001118:	d19b      	bne.n	8001052 <SE_CallGateService+0x66>
      IS_SE_LOCKED_SERVICES();
 800111a:	682a      	ldr	r2, [r5, #0]
 800111c:	9001      	str	r0, [sp, #4]
 800111e:	f1b2 3f55 	cmp.w	r2, #1431655765	; 0x55555555
 8001122:	d18d      	bne.n	8001040 <SE_CallGateService+0x54>
      if (SE_LL_Buffer_in_SBSFU_ram(input_buffer, (uint32_t)input_size) != SE_SUCCESS)
 8001124:	4631      	mov	r1, r6
 8001126:	4640      	mov	r0, r8
 8001128:	f7ff fd44 	bl	8000bb4 <SE_LL_Buffer_in_SBSFU_ram>
 800112c:	9b01      	ldr	r3, [sp, #4]
 800112e:	4298      	cmp	r0, r3
 8001130:	4683      	mov	fp, r0
 8001132:	d18e      	bne.n	8001052 <SE_CallGateService+0x66>
      if (SE_LL_Buffer_in_SBSFU_ram(output_size, sizeof(*output_size)) != SE_SUCCESS)
 8001134:	2104      	movs	r1, #4
 8001136:	4650      	mov	r0, sl
 8001138:	f7ff fd3c 	bl	8000bb4 <SE_LL_Buffer_in_SBSFU_ram>
 800113c:	4558      	cmp	r0, fp
 800113e:	4605      	mov	r5, r0
 8001140:	d187      	bne.n	8001052 <SE_CallGateService+0x66>
      if (SE_LL_Buffer_in_SBSFU_ram(output_buffer, (uint32_t)input_size) != SE_SUCCESS)
 8001142:	4631      	mov	r1, r6
 8001144:	4648      	mov	r0, r9
 8001146:	f7ff fd35 	bl	8000bb4 <SE_LL_Buffer_in_SBSFU_ram>
 800114a:	42a8      	cmp	r0, r5
 800114c:	d181      	bne.n	8001052 <SE_CallGateService+0x66>
      e_ret_status = SE_CRYPTO_Decrypt_Append(input_buffer, input_size, output_buffer, output_size);
 800114e:	4653      	mov	r3, sl
 8001150:	464a      	mov	r2, r9
 8001152:	4631      	mov	r1, r6
 8001154:	4640      	mov	r0, r8
 8001156:	f7ff fadd 	bl	8000714 <SE_CRYPTO_Decrypt_Append>
      break;
 800115a:	e7b5      	b.n	80010c8 <SE_CallGateService+0xdc>
      IS_SE_LOCKED_SERVICES();
 800115c:	682b      	ldr	r3, [r5, #0]
 800115e:	f1b3 3f55 	cmp.w	r3, #1431655765	; 0x55555555
 8001162:	f47f af6d 	bne.w	8001040 <SE_CallGateService+0x54>
      output_size = va_arg(arguments, int32_t *);
 8001166:	e9d2 8900 	ldrd	r8, r9, [r2]
      if (SE_LL_CRC_Config() == SE_ERROR)
 800116a:	f7ff fc7d 	bl	8000a68 <SE_LL_CRC_Config>
 800116e:	4b57      	ldr	r3, [pc, #348]	; (80012cc <SE_CallGateService+0x2e0>)
 8001170:	4298      	cmp	r0, r3
 8001172:	f43f af6e 	beq.w	8001052 <SE_CallGateService+0x66>
      if (SE_LL_Buffer_in_SBSFU_ram(output_size, sizeof(*output_size)) != SE_SUCCESS)
 8001176:	2104      	movs	r1, #4
 8001178:	4648      	mov	r0, r9
 800117a:	f7ff fd1b 	bl	8000bb4 <SE_LL_Buffer_in_SBSFU_ram>
 800117e:	4b55      	ldr	r3, [pc, #340]	; (80012d4 <SE_CallGateService+0x2e8>)
 8001180:	4298      	cmp	r0, r3
 8001182:	4682      	mov	sl, r0
 8001184:	f47f af65 	bne.w	8001052 <SE_CallGateService+0x66>
      if (SE_LL_Buffer_in_SBSFU_ram(output_buffer, (uint32_t)16U) != SE_SUCCESS)
 8001188:	2110      	movs	r1, #16
 800118a:	4640      	mov	r0, r8
 800118c:	f7ff fd12 	bl	8000bb4 <SE_LL_Buffer_in_SBSFU_ram>
 8001190:	4550      	cmp	r0, sl
 8001192:	4606      	mov	r6, r0
 8001194:	f47f af5d 	bne.w	8001052 <SE_CallGateService+0x66>
      IS_SE_LOCKED_SERVICES();
 8001198:	682b      	ldr	r3, [r5, #0]
 800119a:	f1b3 3f55 	cmp.w	r3, #1431655765	; 0x55555555
 800119e:	f47f af4f 	bne.w	8001040 <SE_CallGateService+0x54>
      if (SE_LL_Buffer_in_SBSFU_ram(output_size, sizeof(*output_size)) != SE_SUCCESS)
 80011a2:	2104      	movs	r1, #4
 80011a4:	4648      	mov	r0, r9
 80011a6:	f7ff fd05 	bl	8000bb4 <SE_LL_Buffer_in_SBSFU_ram>
 80011aa:	42b0      	cmp	r0, r6
 80011ac:	4605      	mov	r5, r0
 80011ae:	f47f af50 	bne.w	8001052 <SE_CallGateService+0x66>
      if (SE_LL_Buffer_in_SBSFU_ram(output_buffer, (uint32_t)16U) != SE_SUCCESS)
 80011b2:	2110      	movs	r1, #16
 80011b4:	4640      	mov	r0, r8
 80011b6:	f7ff fcfd 	bl	8000bb4 <SE_LL_Buffer_in_SBSFU_ram>
 80011ba:	42a8      	cmp	r0, r5
 80011bc:	f47f af49 	bne.w	8001052 <SE_CallGateService+0x66>
      e_ret_status =  SE_CRYPTO_Decrypt_Finish(output_buffer, output_size);
 80011c0:	4649      	mov	r1, r9
 80011c2:	4640      	mov	r0, r8
 80011c4:	f7ff fac0 	bl	8000748 <SE_CRYPTO_Decrypt_Finish>
      break;
 80011c8:	e77e      	b.n	80010c8 <SE_CallGateService+0xdc>
      IS_SE_LOCKED_SERVICES();
 80011ca:	682b      	ldr	r3, [r5, #0]
 80011cc:	f1b3 3f55 	cmp.w	r3, #1431655765	; 0x55555555
 80011d0:	f47f af36 	bne.w	8001040 <SE_CallGateService+0x54>
      se_FwType = va_arg(arguments, uint32_t);
 80011d4:	e9d2 8900 	ldrd	r8, r9, [r2]
      if (SE_LL_CRC_Config() == SE_ERROR)
 80011d8:	f7ff fc46 	bl	8000a68 <SE_LL_CRC_Config>
 80011dc:	4b3b      	ldr	r3, [pc, #236]	; (80012cc <SE_CallGateService+0x2e0>)
 80011de:	4298      	cmp	r0, r3
 80011e0:	f43f af37 	beq.w	8001052 <SE_CallGateService+0x66>
      if (SE_LL_Buffer_in_SBSFU_ram(p_x_se_Metadata, sizeof(*p_x_se_Metadata)) != SE_SUCCESS)
 80011e4:	f44f 71a0 	mov.w	r1, #320	; 0x140
 80011e8:	4640      	mov	r0, r8
 80011ea:	f7ff fce3 	bl	8000bb4 <SE_LL_Buffer_in_SBSFU_ram>
 80011ee:	4b39      	ldr	r3, [pc, #228]	; (80012d4 <SE_CallGateService+0x2e8>)
 80011f0:	4298      	cmp	r0, r3
 80011f2:	4606      	mov	r6, r0
 80011f4:	f47f af2d 	bne.w	8001052 <SE_CallGateService+0x66>
      if ((se_FwType != SE_FW_IMAGE_COMPLETE) && (se_FwType != SE_FW_IMAGE_PARTIAL))
 80011f8:	f1b9 0f01 	cmp.w	r9, #1
 80011fc:	f63f af29 	bhi.w	8001052 <SE_CallGateService+0x66>
      IS_SE_LOCKED_SERVICES();
 8001200:	682b      	ldr	r3, [r5, #0]
 8001202:	f1b3 3f55 	cmp.w	r3, #1431655765	; 0x55555555
 8001206:	f47f af1b 	bne.w	8001040 <SE_CallGateService+0x54>
      if (SE_LL_Buffer_in_SBSFU_ram(p_x_se_Metadata, sizeof(*p_x_se_Metadata)) != SE_SUCCESS)
 800120a:	f44f 71a0 	mov.w	r1, #320	; 0x140
 800120e:	4640      	mov	r0, r8
 8001210:	f7ff fcd0 	bl	8000bb4 <SE_LL_Buffer_in_SBSFU_ram>
 8001214:	42b0      	cmp	r0, r6
 8001216:	f47f af1c 	bne.w	8001052 <SE_CallGateService+0x66>
      e_ret_status = SE_CRYPTO_AuthenticateFW_Init(p_x_se_Metadata, se_FwType);
 800121a:	4649      	mov	r1, r9
 800121c:	4640      	mov	r0, r8
 800121e:	f7ff faf7 	bl	8000810 <SE_CRYPTO_AuthenticateFW_Init>
      break;
 8001222:	e751      	b.n	80010c8 <SE_CallGateService+0xdc>
      IS_SE_LOCKED_SERVICES();
 8001224:	682b      	ldr	r3, [r5, #0]
 8001226:	f1b3 3f55 	cmp.w	r3, #1431655765	; 0x55555555
 800122a:	f47f af09 	bne.w	8001040 <SE_CallGateService+0x54>
      input_size = va_arg(arguments, int32_t);
 800122e:	e9d2 8600 	ldrd	r8, r6, [r2]
      output_size = va_arg(arguments, int32_t *);
 8001232:	e9d2 9a02 	ldrd	r9, sl, [r2, #8]
      if (SE_LL_CRC_Config() == SE_ERROR)
 8001236:	f7ff fc17 	bl	8000a68 <SE_LL_CRC_Config>
 800123a:	4b24      	ldr	r3, [pc, #144]	; (80012cc <SE_CallGateService+0x2e0>)
 800123c:	4298      	cmp	r0, r3
 800123e:	f43f af08 	beq.w	8001052 <SE_CallGateService+0x66>
      if (input_size <= 0)
 8001242:	2e00      	cmp	r6, #0
 8001244:	f77f af05 	ble.w	8001052 <SE_CallGateService+0x66>
      if (SE_LL_Buffer_in_SBSFU_ram(input_buffer, (uint32_t)input_size) != SE_SUCCESS)
 8001248:	4631      	mov	r1, r6
 800124a:	4640      	mov	r0, r8
 800124c:	f7ff fcb2 	bl	8000bb4 <SE_LL_Buffer_in_SBSFU_ram>
 8001250:	4a20      	ldr	r2, [pc, #128]	; (80012d4 <SE_CallGateService+0x2e8>)
 8001252:	4290      	cmp	r0, r2
 8001254:	f47f aefd 	bne.w	8001052 <SE_CallGateService+0x66>
 8001258:	9001      	str	r0, [sp, #4]
      if (SE_LL_Buffer_in_SBSFU_ram(output_size, sizeof(*output_size)) != SE_SUCCESS)
 800125a:	2104      	movs	r1, #4
 800125c:	4650      	mov	r0, sl
 800125e:	f7ff fca9 	bl	8000bb4 <SE_LL_Buffer_in_SBSFU_ram>
 8001262:	9b01      	ldr	r3, [sp, #4]
 8001264:	4298      	cmp	r0, r3
 8001266:	4683      	mov	fp, r0
 8001268:	f47f aef3 	bne.w	8001052 <SE_CallGateService+0x66>
      if (SE_LL_Buffer_in_SBSFU_ram(output_buffer, (uint32_t)input_size) != SE_SUCCESS)
 800126c:	4631      	mov	r1, r6
 800126e:	4648      	mov	r0, r9
 8001270:	f7ff fca0 	bl	8000bb4 <SE_LL_Buffer_in_SBSFU_ram>
 8001274:	4558      	cmp	r0, fp
 8001276:	f47f aeec 	bne.w	8001052 <SE_CallGateService+0x66>
      IS_SE_LOCKED_SERVICES();
 800127a:	682a      	ldr	r2, [r5, #0]
 800127c:	9001      	str	r0, [sp, #4]
 800127e:	f1b2 3f55 	cmp.w	r2, #1431655765	; 0x55555555
 8001282:	f47f aedd 	bne.w	8001040 <SE_CallGateService+0x54>
      if (SE_LL_Buffer_in_SBSFU_ram(input_buffer, (uint32_t)input_size) != SE_SUCCESS)
 8001286:	4631      	mov	r1, r6
 8001288:	4640      	mov	r0, r8
 800128a:	f7ff fc93 	bl	8000bb4 <SE_LL_Buffer_in_SBSFU_ram>
 800128e:	9b01      	ldr	r3, [sp, #4]
 8001290:	4298      	cmp	r0, r3
 8001292:	4683      	mov	fp, r0
 8001294:	f47f aedd 	bne.w	8001052 <SE_CallGateService+0x66>
      if (SE_LL_Buffer_in_SBSFU_ram(output_size, sizeof(*output_size)) != SE_SUCCESS)
 8001298:	2104      	movs	r1, #4
 800129a:	4650      	mov	r0, sl
 800129c:	f7ff fc8a 	bl	8000bb4 <SE_LL_Buffer_in_SBSFU_ram>
 80012a0:	4558      	cmp	r0, fp
 80012a2:	4605      	mov	r5, r0
 80012a4:	f47f aed5 	bne.w	8001052 <SE_CallGateService+0x66>
      if (SE_LL_Buffer_in_SBSFU_ram(output_buffer, (uint32_t)input_size) != SE_SUCCESS)
 80012a8:	4631      	mov	r1, r6
 80012aa:	4648      	mov	r0, r9
 80012ac:	f7ff fc82 	bl	8000bb4 <SE_LL_Buffer_in_SBSFU_ram>
 80012b0:	42a8      	cmp	r0, r5
 80012b2:	f47f aece 	bne.w	8001052 <SE_CallGateService+0x66>
      e_ret_status = SE_CRYPTO_AuthenticateFW_Append(input_buffer, input_size, output_buffer, output_size);
 80012b6:	4653      	mov	r3, sl
 80012b8:	464a      	mov	r2, r9
 80012ba:	4631      	mov	r1, r6
 80012bc:	4640      	mov	r0, r8
 80012be:	f7ff fac1 	bl	8000844 <SE_CRYPTO_AuthenticateFW_Append>
      break;
 80012c2:	e701      	b.n	80010c8 <SE_CallGateService+0xdc>
 80012c4:	20000400 	.word	0x20000400
 80012c8:	0012e223 	.word	0x0012e223
 80012cc:	00018799 	.word	0x00018799
 80012d0:	0013023d 	.word	0x0013023d
 80012d4:	0012310f 	.word	0x0012310f
      IS_SE_LOCKED_SERVICES();
 80012d8:	682b      	ldr	r3, [r5, #0]
 80012da:	f1b3 3f55 	cmp.w	r3, #1431655765	; 0x55555555
 80012de:	f47f aeaf 	bne.w	8001040 <SE_CallGateService+0x54>
      output_size = va_arg(arguments, int32_t *);
 80012e2:	e9d2 8900 	ldrd	r8, r9, [r2]
      if (SE_LL_CRC_Config() == SE_ERROR)
 80012e6:	f7ff fbbf 	bl	8000a68 <SE_LL_CRC_Config>
 80012ea:	4b70      	ldr	r3, [pc, #448]	; (80014ac <SE_CallGateService+0x4c0>)
 80012ec:	4298      	cmp	r0, r3
 80012ee:	f43f aeb0 	beq.w	8001052 <SE_CallGateService+0x66>
      if (SE_LL_Buffer_in_SBSFU_ram(output_size, sizeof(*output_size)) != SE_SUCCESS)
 80012f2:	2104      	movs	r1, #4
 80012f4:	4648      	mov	r0, r9
 80012f6:	f7ff fc5d 	bl	8000bb4 <SE_LL_Buffer_in_SBSFU_ram>
 80012fa:	4b6d      	ldr	r3, [pc, #436]	; (80014b0 <SE_CallGateService+0x4c4>)
 80012fc:	4298      	cmp	r0, r3
 80012fe:	4682      	mov	sl, r0
 8001300:	f47f aea7 	bne.w	8001052 <SE_CallGateService+0x66>
      if (SE_LL_Buffer_in_SBSFU_ram(output_buffer, (uint32_t)16U) != SE_SUCCESS)
 8001304:	2110      	movs	r1, #16
 8001306:	4640      	mov	r0, r8
 8001308:	f7ff fc54 	bl	8000bb4 <SE_LL_Buffer_in_SBSFU_ram>
 800130c:	4550      	cmp	r0, sl
 800130e:	4606      	mov	r6, r0
 8001310:	f47f ae9f 	bne.w	8001052 <SE_CallGateService+0x66>
      IS_SE_LOCKED_SERVICES();
 8001314:	682b      	ldr	r3, [r5, #0]
 8001316:	f1b3 3f55 	cmp.w	r3, #1431655765	; 0x55555555
 800131a:	f47f ae91 	bne.w	8001040 <SE_CallGateService+0x54>
      if (SE_LL_Buffer_in_SBSFU_ram(output_size, sizeof(*output_size)) != SE_SUCCESS)
 800131e:	2104      	movs	r1, #4
 8001320:	4648      	mov	r0, r9
 8001322:	f7ff fc47 	bl	8000bb4 <SE_LL_Buffer_in_SBSFU_ram>
 8001326:	42b0      	cmp	r0, r6
 8001328:	4605      	mov	r5, r0
 800132a:	f47f ae92 	bne.w	8001052 <SE_CallGateService+0x66>
      if (SE_LL_Buffer_in_SBSFU_ram(output_buffer, (uint32_t)16U) != SE_SUCCESS)
 800132e:	2110      	movs	r1, #16
 8001330:	4640      	mov	r0, r8
 8001332:	f7ff fc3f 	bl	8000bb4 <SE_LL_Buffer_in_SBSFU_ram>
 8001336:	42a8      	cmp	r0, r5
 8001338:	f47f ae8b 	bne.w	8001052 <SE_CallGateService+0x66>
      e_ret_status = SE_CRYPTO_AuthenticateFW_Finish(output_buffer, output_size);
 800133c:	4649      	mov	r1, r9
 800133e:	4640      	mov	r0, r8
 8001340:	f7ff fa94 	bl	800086c <SE_CRYPTO_AuthenticateFW_Finish>
      break;
 8001344:	e6c0      	b.n	80010c8 <SE_CallGateService+0xdc>
      IS_SE_LOCKED_SERVICES();
 8001346:	682b      	ldr	r3, [r5, #0]
 8001348:	f1b3 3f55 	cmp.w	r3, #1431655765	; 0x55555555
 800134c:	f47f ae78 	bne.w	8001040 <SE_CallGateService+0x54>
      p_x_se_Metadata = va_arg(arguments, SE_FwRawHeaderTypeDef *);
 8001350:	f8d2 8000 	ldr.w	r8, [r2]
      if (SE_LL_CRC_Config() == SE_ERROR)
 8001354:	f7ff fb88 	bl	8000a68 <SE_LL_CRC_Config>
 8001358:	4b54      	ldr	r3, [pc, #336]	; (80014ac <SE_CallGateService+0x4c0>)
 800135a:	4298      	cmp	r0, r3
 800135c:	f43f ae79 	beq.w	8001052 <SE_CallGateService+0x66>
      if (SE_LL_Buffer_in_SBSFU_ram(p_x_se_Metadata, sizeof(*p_x_se_Metadata)) != SE_SUCCESS)
 8001360:	f44f 71a0 	mov.w	r1, #320	; 0x140
 8001364:	4640      	mov	r0, r8
 8001366:	f7ff fc25 	bl	8000bb4 <SE_LL_Buffer_in_SBSFU_ram>
 800136a:	4b51      	ldr	r3, [pc, #324]	; (80014b0 <SE_CallGateService+0x4c4>)
 800136c:	4298      	cmp	r0, r3
 800136e:	4606      	mov	r6, r0
 8001370:	f47f ae6f 	bne.w	8001052 <SE_CallGateService+0x66>
      IS_SE_LOCKED_SERVICES();
 8001374:	682b      	ldr	r3, [r5, #0]
 8001376:	f1b3 3f55 	cmp.w	r3, #1431655765	; 0x55555555
 800137a:	f47f ae61 	bne.w	8001040 <SE_CallGateService+0x54>
      if (SE_LL_Buffer_in_SBSFU_ram(p_x_se_Metadata, sizeof(*p_x_se_Metadata)) != SE_SUCCESS)
 800137e:	f44f 71a0 	mov.w	r1, #320	; 0x140
 8001382:	4640      	mov	r0, r8
 8001384:	f7ff fc16 	bl	8000bb4 <SE_LL_Buffer_in_SBSFU_ram>
 8001388:	42b0      	cmp	r0, r6
 800138a:	f47f ae62 	bne.w	8001052 <SE_CallGateService+0x66>
      e_ret_status = SE_CRYPTO_Authenticate_Metadata(p_x_se_Metadata);
 800138e:	4640      	mov	r0, r8
 8001390:	f7ff fa80 	bl	8000894 <SE_CRYPTO_Authenticate_Metadata>
      break;
 8001394:	e698      	b.n	80010c8 <SE_CallGateService+0xdc>
      IS_SE_LOCKED_SERVICES();
 8001396:	f8df b11c 	ldr.w	fp, [pc, #284]	; 80014b4 <SE_CallGateService+0x4c8>
 800139a:	f8db 3000 	ldr.w	r3, [fp]
 800139e:	f1b3 3f55 	cmp.w	r3, #1431655765	; 0x55555555
 80013a2:	f47f ae4d 	bne.w	8001040 <SE_CallGateService+0x54>
      p_source = va_arg(arguments, const uint8_t *);
 80013a6:	e9d2 6900 	ldrd	r6, r9, [r2]
      length = va_arg(arguments, uint32_t);
 80013aa:	f8d2 a008 	ldr.w	sl, [r2, #8]
      if (SE_LL_Buffer_in_SBSFU_ram(p_destination, length) != SE_SUCCESS)
 80013ae:	4630      	mov	r0, r6
 80013b0:	4651      	mov	r1, sl
 80013b2:	f7ff fbff 	bl	8000bb4 <SE_LL_Buffer_in_SBSFU_ram>
 80013b6:	4540      	cmp	r0, r8
 80013b8:	4605      	mov	r5, r0
 80013ba:	f47f ae4a 	bne.w	8001052 <SE_CallGateService+0x66>
      IS_SE_LOCKED_SERVICES();
 80013be:	f8db 3000 	ldr.w	r3, [fp]
 80013c2:	f1b3 3f55 	cmp.w	r3, #1431655765	; 0x55555555
 80013c6:	f47f ae3b 	bne.w	8001040 <SE_CallGateService+0x54>
      if (SE_LL_Buffer_in_SBSFU_ram(p_destination, length) != SE_SUCCESS)
 80013ca:	4651      	mov	r1, sl
 80013cc:	4630      	mov	r0, r6
 80013ce:	f7ff fbf1 	bl	8000bb4 <SE_LL_Buffer_in_SBSFU_ram>
 80013d2:	42a8      	cmp	r0, r5
 80013d4:	f47f ae3d 	bne.w	8001052 <SE_CallGateService+0x66>
      e_ret_status = SE_IMG_Read(p_destination, p_source, length);
 80013d8:	4652      	mov	r2, sl
 80013da:	4649      	mov	r1, r9
 80013dc:	4630      	mov	r0, r6
 80013de:	f000 f883 	bl	80014e8 <SE_IMG_Read>
      break;
 80013e2:	e671      	b.n	80010c8 <SE_CallGateService+0xdc>
      IS_SE_LOCKED_SERVICES();
 80013e4:	f8df b0cc 	ldr.w	fp, [pc, #204]	; 80014b4 <SE_CallGateService+0x4c8>
 80013e8:	f8db 3000 	ldr.w	r3, [fp]
 80013ec:	f1b3 3f55 	cmp.w	r3, #1431655765	; 0x55555555
 80013f0:	f47f ae26 	bne.w	8001040 <SE_CallGateService+0x54>
      p_source = va_arg(arguments, const uint8_t *);
 80013f4:	e9d2 9600 	ldrd	r9, r6, [r2]
      length = va_arg(arguments, uint32_t);
 80013f8:	f8d2 a008 	ldr.w	sl, [r2, #8]
      if (SE_LL_Buffer_in_SBSFU_ram(p_source, length) != SE_SUCCESS)
 80013fc:	4630      	mov	r0, r6
 80013fe:	4651      	mov	r1, sl
 8001400:	f7ff fbd8 	bl	8000bb4 <SE_LL_Buffer_in_SBSFU_ram>
 8001404:	4540      	cmp	r0, r8
 8001406:	4605      	mov	r5, r0
 8001408:	f47f ae23 	bne.w	8001052 <SE_CallGateService+0x66>
      IS_SE_LOCKED_SERVICES();
 800140c:	f8db 3000 	ldr.w	r3, [fp]
 8001410:	f1b3 3f55 	cmp.w	r3, #1431655765	; 0x55555555
 8001414:	f47f ae14 	bne.w	8001040 <SE_CallGateService+0x54>
      if (SE_LL_Buffer_in_SBSFU_ram(p_source, length) != SE_SUCCESS)
 8001418:	4651      	mov	r1, sl
 800141a:	4630      	mov	r0, r6
 800141c:	f7ff fbca 	bl	8000bb4 <SE_LL_Buffer_in_SBSFU_ram>
 8001420:	42a8      	cmp	r0, r5
 8001422:	f47f ae16 	bne.w	8001052 <SE_CallGateService+0x66>
      e_ret_status = SE_IMG_Write(p_destination, p_source, length);
 8001426:	4652      	mov	r2, sl
 8001428:	4631      	mov	r1, r6
 800142a:	4648      	mov	r0, r9
 800142c:	f000 f846 	bl	80014bc <SE_IMG_Write>
      break;
 8001430:	e64a      	b.n	80010c8 <SE_CallGateService+0xdc>
      IS_SE_LOCKED_SERVICES();
 8001432:	4b20      	ldr	r3, [pc, #128]	; (80014b4 <SE_CallGateService+0x4c8>)
 8001434:	681b      	ldr	r3, [r3, #0]
 8001436:	f1b3 3f55 	cmp.w	r3, #1431655765	; 0x55555555
 800143a:	f47f ae01 	bne.w	8001040 <SE_CallGateService+0x54>
      e_ret_status = SE_IMG_Erase(p_destination, length);
 800143e:	e9d2 0100 	ldrd	r0, r1, [r2]
 8001442:	f000 f867 	bl	8001514 <SE_IMG_Erase>
      break;
 8001446:	e63f      	b.n	80010c8 <SE_CallGateService+0xdc>
      SE_LockRestrictedServices = SE_LOCKED;
 8001448:	4d1a      	ldr	r5, [pc, #104]	; (80014b4 <SE_CallGateService+0x4c8>)
 800144a:	4e1b      	ldr	r6, [pc, #108]	; (80014b8 <SE_CallGateService+0x4cc>)
      SE_LL_CORE_Cleanup();
 800144c:	f7ff fbe6 	bl	8000c1c <SE_LL_CORE_Cleanup>
      SE_LockRestrictedServices = SE_LOCKED;
 8001450:	602e      	str	r6, [r5, #0]
      if (SE_LL_Lock_Keys() != SE_SUCCESS)
 8001452:	f7ff fbe5 	bl	8000c20 <SE_LL_Lock_Keys>
 8001456:	4b16      	ldr	r3, [pc, #88]	; (80014b0 <SE_CallGateService+0x4c4>)
 8001458:	4298      	cmp	r0, r3
 800145a:	f47f adfa 	bne.w	8001052 <SE_CallGateService+0x66>
      SE_LockRestrictedServices = SE_LOCKED;
 800145e:	602e      	str	r6, [r5, #0]
  if ((e_ret_status == SE_ERROR) && (*peSE_Status == SE_OK))
 8001460:	e609      	b.n	8001076 <SE_CallGateService+0x8a>
      p_FwInfo = va_arg(arguments, SE_APP_ActiveFwInfo_t *);
 8001462:	e9d2 9500 	ldrd	r9, r5, [r2]
      if (SE_LL_Buffer_in_ram((void *)p_FwInfo, sizeof(*p_FwInfo)) != SE_SUCCESS)
 8001466:	2108      	movs	r1, #8
 8001468:	4628      	mov	r0, r5
 800146a:	f7ff fb8d 	bl	8000b88 <SE_LL_Buffer_in_ram>
 800146e:	4540      	cmp	r0, r8
 8001470:	4606      	mov	r6, r0
 8001472:	f47f adee 	bne.w	8001052 <SE_CallGateService+0x66>
      if (SE_LL_Buffer_part_of_SE_ram((void *)p_FwInfo, sizeof(*p_FwInfo)) == SE_SUCCESS)
 8001476:	2108      	movs	r1, #8
 8001478:	4628      	mov	r0, r5
 800147a:	f7ff fbb3 	bl	8000be4 <SE_LL_Buffer_part_of_SE_ram>
 800147e:	42b0      	cmp	r0, r6
 8001480:	f43f ade7 	beq.w	8001052 <SE_CallGateService+0x66>
      if (SE_LL_Buffer_in_ram((void *)p_FwInfo, sizeof(*p_FwInfo)) != SE_SUCCESS)
 8001484:	2108      	movs	r1, #8
 8001486:	4628      	mov	r0, r5
 8001488:	f7ff fb7e 	bl	8000b88 <SE_LL_Buffer_in_ram>
 800148c:	42b0      	cmp	r0, r6
 800148e:	4680      	mov	r8, r0
 8001490:	f47f addf 	bne.w	8001052 <SE_CallGateService+0x66>
      if (SE_LL_Buffer_part_of_SE_ram((void *)p_FwInfo, sizeof(*p_FwInfo)) == SE_SUCCESS)
 8001494:	2108      	movs	r1, #8
 8001496:	4628      	mov	r0, r5
 8001498:	f7ff fba4 	bl	8000be4 <SE_LL_Buffer_part_of_SE_ram>
 800149c:	4540      	cmp	r0, r8
 800149e:	f43f add8 	beq.w	8001052 <SE_CallGateService+0x66>
      e_ret_status = SE_APPLI_GetActiveFwInfo(slot_number, p_FwInfo);
 80014a2:	4629      	mov	r1, r5
 80014a4:	4648      	mov	r0, r9
 80014a6:	f000 f84d 	bl	8001544 <SE_APPLI_GetActiveFwInfo>
      break;
 80014aa:	e60d      	b.n	80010c8 <SE_CallGateService+0xdc>
 80014ac:	00018799 	.word	0x00018799
 80014b0:	0012310f 	.word	0x0012310f
 80014b4:	20000400 	.word	0x20000400
 80014b8:	7aaaaaaa 	.word	0x7aaaaaaa

080014bc <SE_IMG_Write>:
  * @param  Length number of bytes to be written
  * @retval SE_SUCCESS if successful, otherwise SE_ERROR
  */

SE_ErrorStatus SE_IMG_Write(uint8_t *pDestination, const uint8_t *pSource, uint32_t Length)
{
 80014bc:	b430      	push	{r4, r5}

  /* Is destination area part of 1 of the firmware image headers ?
     Headers are located inside protected memory   */
  for (i = 0U; i < SFU_NB_MAX_ACTIVE_IMAGE; i++)
  {
    if ((areabegin >= SlotHeaderAdd[SLOT_ACTIVE_1 + i]) &&
 80014be:	4c08      	ldr	r4, [pc, #32]	; (80014e0 <SE_IMG_Write+0x24>)
 80014c0:	6864      	ldr	r4, [r4, #4]
  uint32_t areaend = areabegin + Length - 1U;
 80014c2:	1e53      	subs	r3, r2, #1
    if ((areabegin >= SlotHeaderAdd[SLOT_ACTIVE_1 + i]) &&
 80014c4:	4284      	cmp	r4, r0
  uint32_t areaend = areabegin + Length - 1U;
 80014c6:	4403      	add	r3, r0
    if ((areabegin >= SlotHeaderAdd[SLOT_ACTIVE_1 + i]) &&
 80014c8:	d803      	bhi.n	80014d2 <SE_IMG_Write+0x16>
        (areaend < (SlotHeaderAdd[SLOT_ACTIVE_1 + i] + SFU_IMG_IMAGE_OFFSET)))
 80014ca:	f504 7400 	add.w	r4, r4, #512	; 0x200
    if ((areabegin >= SlotHeaderAdd[SLOT_ACTIVE_1 + i]) &&
 80014ce:	429c      	cmp	r4, r3
 80014d0:	d802      	bhi.n	80014d8 <SE_IMG_Write+0x1c>
    ret = SE_LL_FLASH_Write(pDestination, pSource, Length);
  }
  else
  {
    /* Abnormal case: this primitive should not be used to access this address */
    ret = SE_ERROR;
 80014d2:	4804      	ldr	r0, [pc, #16]	; (80014e4 <SE_IMG_Write+0x28>)
  }
  return ret;
}
 80014d4:	bc30      	pop	{r4, r5}
 80014d6:	4770      	bx	lr
 80014d8:	bc30      	pop	{r4, r5}
    ret = SE_LL_FLASH_Write(pDestination, pSource, Length);
 80014da:	f7ff bb13 	b.w	8000b04 <SE_LL_FLASH_Write>
 80014de:	bf00      	nop
 80014e0:	08004504 	.word	0x08004504
 80014e4:	00018799 	.word	0x00018799

080014e8 <SE_IMG_Read>:
  * @param  Length number of bytes to be read
  * @retval SE_SUCCESS if successful, otherwise SE_ERROR
  */

SE_ErrorStatus SE_IMG_Read(uint8_t *pDestination, const uint8_t *pSource, uint32_t Length)
{
 80014e8:	b430      	push	{r4, r5}

  /* Is destination area part of 1 of the firmware image headers ?
     Headers are located inside protected memory   */
  for (i = 0U; i < SFU_NB_MAX_ACTIVE_IMAGE; i++)
  {
    if ((areabegin >= SlotHeaderAdd[SLOT_ACTIVE_1 + i]) &&
 80014ea:	4c08      	ldr	r4, [pc, #32]	; (800150c <SE_IMG_Read+0x24>)
 80014ec:	6864      	ldr	r4, [r4, #4]
  uint32_t areaend = areabegin + Length - 1U;
 80014ee:	1e53      	subs	r3, r2, #1
    if ((areabegin >= SlotHeaderAdd[SLOT_ACTIVE_1 + i]) &&
 80014f0:	428c      	cmp	r4, r1
  uint32_t areaend = areabegin + Length - 1U;
 80014f2:	440b      	add	r3, r1
    if ((areabegin >= SlotHeaderAdd[SLOT_ACTIVE_1 + i]) &&
 80014f4:	d803      	bhi.n	80014fe <SE_IMG_Read+0x16>
        (areaend < (SlotHeaderAdd[SLOT_ACTIVE_1 + i] + SFU_IMG_IMAGE_OFFSET)))
 80014f6:	f504 7400 	add.w	r4, r4, #512	; 0x200
    if ((areabegin >= SlotHeaderAdd[SLOT_ACTIVE_1 + i]) &&
 80014fa:	429c      	cmp	r4, r3
 80014fc:	d802      	bhi.n	8001504 <SE_IMG_Read+0x1c>
    ret = SE_LL_FLASH_Read(pDestination, pSource, Length);
  }
  else
  {
    /* Abnormal case: this primitive should not be used to access this address */
    ret = SE_ERROR;
 80014fe:	4804      	ldr	r0, [pc, #16]	; (8001510 <SE_IMG_Read+0x28>)
  }
  return ret;
}
 8001500:	bc30      	pop	{r4, r5}
 8001502:	4770      	bx	lr
 8001504:	bc30      	pop	{r4, r5}
    ret = SE_LL_FLASH_Read(pDestination, pSource, Length);
 8001506:	f7ff bb29 	b.w	8000b5c <SE_LL_FLASH_Read>
 800150a:	bf00      	nop
 800150c:	08004504 	.word	0x08004504
 8001510:	00018799 	.word	0x00018799

08001514 <SE_IMG_Erase>:

  /* Is destination area part of 1 of the firmware image headers ?
     Headers are located inside protected memory   */
  for (i = 0U; i < SFU_NB_MAX_ACTIVE_IMAGE; i++)
  {
    if ((areabegin >= SlotHeaderAdd[SLOT_ACTIVE_1 + i]) &&
 8001514:	4a09      	ldr	r2, [pc, #36]	; (800153c <SE_IMG_Erase+0x28>)
 8001516:	6852      	ldr	r2, [r2, #4]
  uint32_t areaend = areabegin + Length - 1U;
 8001518:	1e4b      	subs	r3, r1, #1
    if ((areabegin >= SlotHeaderAdd[SLOT_ACTIVE_1 + i]) &&
 800151a:	4282      	cmp	r2, r0
{
 800151c:	b410      	push	{r4}
  uint32_t areaend = areabegin + Length - 1U;
 800151e:	4403      	add	r3, r0
    if ((areabegin >= SlotHeaderAdd[SLOT_ACTIVE_1 + i]) &&
 8001520:	d803      	bhi.n	800152a <SE_IMG_Erase+0x16>
        (areaend < (SlotHeaderAdd[SLOT_ACTIVE_1 + i] + SFU_IMG_IMAGE_OFFSET)))
 8001522:	f502 7200 	add.w	r2, r2, #512	; 0x200
    if ((areabegin >= SlotHeaderAdd[SLOT_ACTIVE_1 + i]) &&
 8001526:	429a      	cmp	r2, r3
 8001528:	d803      	bhi.n	8001532 <SE_IMG_Erase+0x1e>
    ret = SE_LL_FLASH_Erase(pDestination, Length);
  }
  else
  {
    /* Abnormal case: this primitive should not be used to access this address */
    ret = SE_ERROR;
 800152a:	4805      	ldr	r0, [pc, #20]	; (8001540 <SE_IMG_Erase+0x2c>)
  }
  return ret;
}
 800152c:	f85d 4b04 	ldr.w	r4, [sp], #4
 8001530:	4770      	bx	lr
 8001532:	f85d 4b04 	ldr.w	r4, [sp], #4
    ret = SE_LL_FLASH_Erase(pDestination, Length);
 8001536:	f7ff baad 	b.w	8000a94 <SE_LL_FLASH_Erase>
 800153a:	bf00      	nop
 800153c:	08004504 	.word	0x08004504
 8001540:	00018799 	.word	0x00018799

08001544 <SE_APPLI_GetActiveFwInfo>:
  * @param  SlotNumber index of the slot in the list
  * @param p_FwInfo Active Firmware Info structure that will be filled.
  * @retval SE_ErrorStatus SE_SUCCESS if successful, SE_ERROR otherwise.
  */
SE_ErrorStatus SE_APPLI_GetActiveFwInfo(uint32_t SlotNumber, SE_APP_ActiveFwInfo_t *p_FwInfo)
{
 8001544:	b510      	push	{r4, lr}
  SE_ErrorStatus e_ret_status;
  uint8_t buffer[SE_FW_HEADER_TOT_LEN];     /* to read FW metadata from FLASH */
  SE_FwRawHeaderTypeDef *pfw_image_header;  /* FW metadata */

  /* Check the pointer allocation */
  if (NULL == p_FwInfo)
 8001546:	460c      	mov	r4, r1
{
 8001548:	b0d0      	sub	sp, #320	; 0x140
  if (NULL == p_FwInfo)
 800154a:	b199      	cbz	r1, 8001574 <SE_APPLI_GetActiveFwInfo+0x30>
  {
    return SE_ERROR;
  }

  /* Check Slot_Number value */
  if (SlotNumber > SFU_NB_MAX_ACTIVE_IMAGE)
 800154c:	2801      	cmp	r0, #1
 800154e:	d811      	bhi.n	8001574 <SE_APPLI_GetActiveFwInfo+0x30>
    return SE_ERROR;
  }
  /*
   * The Firmware Information is available in the header of the active slot.
   */
  e_ret_status = SE_LL_FLASH_Read(buffer, (uint8_t *) SlotHeaderAdd[SlotNumber], sizeof(buffer));
 8001550:	4b09      	ldr	r3, [pc, #36]	; (8001578 <SE_APPLI_GetActiveFwInfo+0x34>)
 8001552:	f44f 72a0 	mov.w	r2, #320	; 0x140
 8001556:	f853 1020 	ldr.w	r1, [r3, r0, lsl #2]
 800155a:	4668      	mov	r0, sp
 800155c:	f7ff fafe 	bl	8000b5c <SE_LL_FLASH_Read>
  if (e_ret_status != SE_ERROR)
 8001560:	4b06      	ldr	r3, [pc, #24]	; (800157c <SE_APPLI_GetActiveFwInfo+0x38>)
 8001562:	4298      	cmp	r0, r3
 8001564:	d004      	beq.n	8001570 <SE_APPLI_GetActiveFwInfo+0x2c>

    /*
     * We do not check the header validity.
     * We just copy the information.
     */
    p_FwInfo->ActiveFwVersion = pfw_image_header->FwVersion;
 8001566:	f8bd 3006 	ldrh.w	r3, [sp, #6]
 800156a:	8023      	strh	r3, [r4, #0]
    p_FwInfo->ActiveFwSize = pfw_image_header->FwSize;
 800156c:	9b02      	ldr	r3, [sp, #8]
 800156e:	6063      	str	r3, [r4, #4]
  }

  return e_ret_status;
}
 8001570:	b050      	add	sp, #320	; 0x140
 8001572:	bd10      	pop	{r4, pc}
    return SE_ERROR;
 8001574:	4801      	ldr	r0, [pc, #4]	; (800157c <SE_APPLI_GetActiveFwInfo+0x38>)
 8001576:	e7fb      	b.n	8001570 <SE_APPLI_GetActiveFwInfo+0x2c>
 8001578:	08004504 	.word	0x08004504
 800157c:	00018799 	.word	0x00018799

08001580 <SE_SetSystemCoreClock>:
  * @param uSystemCoreClock Secure Engine SystemCoreClock variable.
  * @retval None.
  */
void SE_SetSystemCoreClock(uint32_t uSystemCoreClock)
{
  m_uSE_SystemCoreClock = uSystemCoreClock;
 8001580:	4b01      	ldr	r3, [pc, #4]	; (8001588 <SE_SetSystemCoreClock+0x8>)
 8001582:	6018      	str	r0, [r3, #0]
}
 8001584:	4770      	bx	lr
 8001586:	bf00      	nop
 8001588:	20000e28 	.word	0x20000e28

0800158c <HAL_GetTick>:
  static uint32_t t1 = 0U, tdelta = 0U;
  uint32_t t2;

  t2 =  SysTick->VAL;

  if (t2 <= t1)
 800158c:	4a0e      	ldr	r2, [pc, #56]	; (80015c8 <HAL_GetTick+0x3c>)
  t2 =  SysTick->VAL;
 800158e:	f04f 20e0 	mov.w	r0, #3758153728	; 0xe000e000
{
 8001592:	b510      	push	{r4, lr}
  {
    tdelta += t1 - t2;
 8001594:	e9d2 3401 	ldrd	r3, r4, [r2, #4]
  t2 =  SysTick->VAL;
 8001598:	6981      	ldr	r1, [r0, #24]
  if (t2 <= t1)
 800159a:	428b      	cmp	r3, r1
  }
  else
  {
    tdelta += t1 + SysTick->LOAD - t2;
 800159c:	bf38      	it	cc
 800159e:	6940      	ldrcc	r0, [r0, #20]
 80015a0:	4423      	add	r3, r4
 80015a2:	bf38      	it	cc
 80015a4:	181b      	addcc	r3, r3, r0
 80015a6:	1a5b      	subs	r3, r3, r1
  }

  if (tdelta > (m_uSE_SystemCoreClock / 1000U))
 80015a8:	6810      	ldr	r0, [r2, #0]
 80015aa:	6093      	str	r3, [r2, #8]
 80015ac:	f44f 747a 	mov.w	r4, #1000	; 0x3e8
 80015b0:	fbb0 f0f4 	udiv	r0, r0, r4
 80015b4:	4298      	cmp	r0, r3
 80015b6:	d204      	bcs.n	80015c2 <HAL_GetTick+0x36>
  {
    tdelta = 0U;
    m_uTick ++;
 80015b8:	68d3      	ldr	r3, [r2, #12]
    tdelta = 0U;
 80015ba:	2000      	movs	r0, #0
    m_uTick ++;
 80015bc:	3301      	adds	r3, #1
    tdelta = 0U;
 80015be:	6090      	str	r0, [r2, #8]
    m_uTick ++;
 80015c0:	60d3      	str	r3, [r2, #12]
  }

  t1 = t2;
  return m_uTick;
}
 80015c2:	68d0      	ldr	r0, [r2, #12]
  t1 = t2;
 80015c4:	6051      	str	r1, [r2, #4]
}
 80015c6:	bd10      	pop	{r4, pc}
 80015c8:	20000e28 	.word	0x20000e28

080015cc <AES_keyschedule_enc_LL>:
 80015cc:	b570      	push	{r4, r5, r6, lr}
 80015ce:	1092      	asrs	r2, r2, #2
 80015d0:	2300      	movs	r3, #0
 80015d2:	4293      	cmp	r3, r2
 80015d4:	da05      	bge.n	80015e2 <AES_keyschedule_enc_LL+0x16>
 80015d6:	f850 4023 	ldr.w	r4, [r0, r3, lsl #2]
 80015da:	f841 4023 	str.w	r4, [r1, r3, lsl #2]
 80015de:	3301      	adds	r3, #1
 80015e0:	e7f7      	b.n	80015d2 <AES_keyschedule_enc_LL+0x6>
 80015e2:	2a06      	cmp	r2, #6
 80015e4:	d02e      	beq.n	8001644 <AES_keyschedule_enc_LL+0x78>
 80015e6:	2a08      	cmp	r2, #8
 80015e8:	d05c      	beq.n	80016a4 <AES_keyschedule_enc_LL+0xd8>
 80015ea:	2a04      	cmp	r2, #4
 80015ec:	f040 80a3 	bne.w	8001736 <AES_keyschedule_enc_LL+0x16a>
 80015f0:	2200      	movs	r2, #0
 80015f2:	4851      	ldr	r0, [pc, #324]	; (8001738 <AES_keyschedule_enc_LL+0x16c>)
 80015f4:	68cb      	ldr	r3, [r1, #12]
 80015f6:	5815      	ldr	r5, [r2, r0]
 80015f8:	6808      	ldr	r0, [r1, #0]
 80015fa:	b2dc      	uxtb	r4, r3
 80015fc:	4045      	eors	r5, r0
 80015fe:	484f      	ldr	r0, [pc, #316]	; (800173c <AES_keyschedule_enc_LL+0x170>)
 8001600:	5d06      	ldrb	r6, [r0, r4]
 8001602:	0e1c      	lsrs	r4, r3, #24
 8001604:	3204      	adds	r2, #4
 8001606:	5d04      	ldrb	r4, [r0, r4]
 8001608:	ea44 2406 	orr.w	r4, r4, r6, lsl #8
 800160c:	f3c3 4607 	ubfx	r6, r3, #16, #8
 8001610:	2a28      	cmp	r2, #40	; 0x28
 8001612:	5d86      	ldrb	r6, [r0, r6]
 8001614:	ea44 6406 	orr.w	r4, r4, r6, lsl #24
 8001618:	f3c3 2607 	ubfx	r6, r3, #8, #8
 800161c:	5d80      	ldrb	r0, [r0, r6]
 800161e:	ea44 4400 	orr.w	r4, r4, r0, lsl #16
 8001622:	ea85 0004 	eor.w	r0, r5, r4
 8001626:	684c      	ldr	r4, [r1, #4]
 8001628:	6108      	str	r0, [r1, #16]
 800162a:	ea80 0004 	eor.w	r0, r0, r4
 800162e:	688c      	ldr	r4, [r1, #8]
 8001630:	6148      	str	r0, [r1, #20]
 8001632:	ea80 0004 	eor.w	r0, r0, r4
 8001636:	ea80 0303 	eor.w	r3, r0, r3
 800163a:	6188      	str	r0, [r1, #24]
 800163c:	61cb      	str	r3, [r1, #28]
 800163e:	d07a      	beq.n	8001736 <AES_keyschedule_enc_LL+0x16a>
 8001640:	3110      	adds	r1, #16
 8001642:	e7d6      	b.n	80015f2 <AES_keyschedule_enc_LL+0x26>
 8001644:	2200      	movs	r2, #0
 8001646:	4b3c      	ldr	r3, [pc, #240]	; (8001738 <AES_keyschedule_enc_LL+0x16c>)
 8001648:	6948      	ldr	r0, [r1, #20]
 800164a:	3201      	adds	r2, #1
 800164c:	eb03 0382 	add.w	r3, r3, r2, lsl #2
 8001650:	b2c5      	uxtb	r5, r0
 8001652:	f853 4c04 	ldr.w	r4, [r3, #-4]
 8001656:	680b      	ldr	r3, [r1, #0]
 8001658:	405c      	eors	r4, r3
 800165a:	4b38      	ldr	r3, [pc, #224]	; (800173c <AES_keyschedule_enc_LL+0x170>)
 800165c:	5d5e      	ldrb	r6, [r3, r5]
 800165e:	0e05      	lsrs	r5, r0, #24
 8001660:	5d5d      	ldrb	r5, [r3, r5]
 8001662:	ea45 2506 	orr.w	r5, r5, r6, lsl #8
 8001666:	f3c0 4607 	ubfx	r6, r0, #16, #8
 800166a:	f3c0 2007 	ubfx	r0, r0, #8, #8
 800166e:	5d9e      	ldrb	r6, [r3, r6]
 8001670:	5c18      	ldrb	r0, [r3, r0]
 8001672:	ea45 6506 	orr.w	r5, r5, r6, lsl #24
 8001676:	ea45 4000 	orr.w	r0, r5, r0, lsl #16
 800167a:	ea84 0300 	eor.w	r3, r4, r0
 800167e:	618b      	str	r3, [r1, #24]
 8001680:	2001      	movs	r0, #1
 8001682:	460b      	mov	r3, r1
 8001684:	685d      	ldr	r5, [r3, #4]
 8001686:	699c      	ldr	r4, [r3, #24]
 8001688:	2803      	cmp	r0, #3
 800168a:	ea85 0404 	eor.w	r4, r5, r4
 800168e:	61dc      	str	r4, [r3, #28]
 8001690:	d101      	bne.n	8001696 <AES_keyschedule_enc_LL+0xca>
 8001692:	2a07      	cmp	r2, #7
 8001694:	dc4f      	bgt.n	8001736 <AES_keyschedule_enc_LL+0x16a>
 8001696:	3001      	adds	r0, #1
 8001698:	2806      	cmp	r0, #6
 800169a:	f103 0304 	add.w	r3, r3, #4
 800169e:	d1f1      	bne.n	8001684 <AES_keyschedule_enc_LL+0xb8>
 80016a0:	3118      	adds	r1, #24
 80016a2:	e7d0      	b.n	8001646 <AES_keyschedule_enc_LL+0x7a>
 80016a4:	2400      	movs	r4, #0
 80016a6:	4b24      	ldr	r3, [pc, #144]	; (8001738 <AES_keyschedule_enc_LL+0x16c>)
 80016a8:	69ca      	ldr	r2, [r1, #28]
 80016aa:	58e5      	ldr	r5, [r4, r3]
 80016ac:	680b      	ldr	r3, [r1, #0]
 80016ae:	b2d0      	uxtb	r0, r2
 80016b0:	405d      	eors	r5, r3
 80016b2:	4b22      	ldr	r3, [pc, #136]	; (800173c <AES_keyschedule_enc_LL+0x170>)
 80016b4:	5c1e      	ldrb	r6, [r3, r0]
 80016b6:	0e10      	lsrs	r0, r2, #24
 80016b8:	3404      	adds	r4, #4
 80016ba:	5c18      	ldrb	r0, [r3, r0]
 80016bc:	ea40 2006 	orr.w	r0, r0, r6, lsl #8
 80016c0:	f3c2 4607 	ubfx	r6, r2, #16, #8
 80016c4:	2c1c      	cmp	r4, #28
 80016c6:	5d9e      	ldrb	r6, [r3, r6]
 80016c8:	ea40 6006 	orr.w	r0, r0, r6, lsl #24
 80016cc:	f3c2 2607 	ubfx	r6, r2, #8, #8
 80016d0:	5d9e      	ldrb	r6, [r3, r6]
 80016d2:	ea40 4006 	orr.w	r0, r0, r6, lsl #16
 80016d6:	ea85 0000 	eor.w	r0, r5, r0
 80016da:	684d      	ldr	r5, [r1, #4]
 80016dc:	6208      	str	r0, [r1, #32]
 80016de:	ea80 0005 	eor.w	r0, r0, r5
 80016e2:	688d      	ldr	r5, [r1, #8]
 80016e4:	6248      	str	r0, [r1, #36]	; 0x24
 80016e6:	ea80 0005 	eor.w	r0, r0, r5
 80016ea:	68cd      	ldr	r5, [r1, #12]
 80016ec:	6288      	str	r0, [r1, #40]	; 0x28
 80016ee:	ea80 0005 	eor.w	r0, r0, r5
 80016f2:	62c8      	str	r0, [r1, #44]	; 0x2c
 80016f4:	d01f      	beq.n	8001736 <AES_keyschedule_enc_LL+0x16a>
 80016f6:	0e05      	lsrs	r5, r0, #24
 80016f8:	3120      	adds	r1, #32
 80016fa:	5d5e      	ldrb	r6, [r3, r5]
 80016fc:	b2c5      	uxtb	r5, r0
 80016fe:	5d5d      	ldrb	r5, [r3, r5]
 8001700:	ea45 6506 	orr.w	r5, r5, r6, lsl #24
 8001704:	f3c0 4607 	ubfx	r6, r0, #16, #8
 8001708:	f3c0 2007 	ubfx	r0, r0, #8, #8
 800170c:	5d9e      	ldrb	r6, [r3, r6]
 800170e:	5c1b      	ldrb	r3, [r3, r0]
 8001710:	f851 0c10 	ldr.w	r0, [r1, #-16]
 8001714:	ea45 4506 	orr.w	r5, r5, r6, lsl #16
 8001718:	ea45 2303 	orr.w	r3, r5, r3, lsl #8
 800171c:	4043      	eors	r3, r0
 800171e:	f851 0c0c 	ldr.w	r0, [r1, #-12]
 8001722:	610b      	str	r3, [r1, #16]
 8001724:	4043      	eors	r3, r0
 8001726:	f851 0c08 	ldr.w	r0, [r1, #-8]
 800172a:	614b      	str	r3, [r1, #20]
 800172c:	4043      	eors	r3, r0
 800172e:	405a      	eors	r2, r3
 8001730:	618b      	str	r3, [r1, #24]
 8001732:	61ca      	str	r2, [r1, #28]
 8001734:	e7b7      	b.n	80016a6 <AES_keyschedule_enc_LL+0xda>
 8001736:	bd70      	pop	{r4, r5, r6, pc}
 8001738:	0800452c 	.word	0x0800452c
 800173c:	08004b54 	.word	0x08004b54

08001740 <SHA256Transform>:
 8001740:	e92d 4ff0 	stmdb	sp!, {r4, r5, r6, r7, r8, r9, sl, fp, lr}
 8001744:	b0c5      	sub	sp, #276	; 0x114
 8001746:	2300      	movs	r3, #0
 8001748:	9303      	str	r3, [sp, #12]
 800174a:	680b      	ldr	r3, [r1, #0]
 800174c:	ba1b      	rev	r3, r3
 800174e:	9304      	str	r3, [sp, #16]
 8001750:	684b      	ldr	r3, [r1, #4]
 8001752:	ba1b      	rev	r3, r3
 8001754:	9305      	str	r3, [sp, #20]
 8001756:	688b      	ldr	r3, [r1, #8]
 8001758:	ba1b      	rev	r3, r3
 800175a:	9306      	str	r3, [sp, #24]
 800175c:	68cb      	ldr	r3, [r1, #12]
 800175e:	ba1b      	rev	r3, r3
 8001760:	9307      	str	r3, [sp, #28]
 8001762:	690b      	ldr	r3, [r1, #16]
 8001764:	ba1b      	rev	r3, r3
 8001766:	9308      	str	r3, [sp, #32]
 8001768:	694b      	ldr	r3, [r1, #20]
 800176a:	ba1b      	rev	r3, r3
 800176c:	9309      	str	r3, [sp, #36]	; 0x24
 800176e:	698b      	ldr	r3, [r1, #24]
 8001770:	ba1b      	rev	r3, r3
 8001772:	930a      	str	r3, [sp, #40]	; 0x28
 8001774:	69cb      	ldr	r3, [r1, #28]
 8001776:	ba1b      	rev	r3, r3
 8001778:	930b      	str	r3, [sp, #44]	; 0x2c
 800177a:	6a0b      	ldr	r3, [r1, #32]
 800177c:	ba1b      	rev	r3, r3
 800177e:	930c      	str	r3, [sp, #48]	; 0x30
 8001780:	6a4b      	ldr	r3, [r1, #36]	; 0x24
 8001782:	ba1b      	rev	r3, r3
 8001784:	930d      	str	r3, [sp, #52]	; 0x34
 8001786:	6a8b      	ldr	r3, [r1, #40]	; 0x28
 8001788:	ba1b      	rev	r3, r3
 800178a:	930e      	str	r3, [sp, #56]	; 0x38
 800178c:	6acb      	ldr	r3, [r1, #44]	; 0x2c
 800178e:	ba1b      	rev	r3, r3
 8001790:	930f      	str	r3, [sp, #60]	; 0x3c
 8001792:	6b0b      	ldr	r3, [r1, #48]	; 0x30
 8001794:	ba1b      	rev	r3, r3
 8001796:	9310      	str	r3, [sp, #64]	; 0x40
 8001798:	6b4b      	ldr	r3, [r1, #52]	; 0x34
 800179a:	ba1b      	rev	r3, r3
 800179c:	9311      	str	r3, [sp, #68]	; 0x44
 800179e:	6b8b      	ldr	r3, [r1, #56]	; 0x38
 80017a0:	ba1b      	rev	r3, r3
 80017a2:	9312      	str	r3, [sp, #72]	; 0x48
 80017a4:	6bcb      	ldr	r3, [r1, #60]	; 0x3c
 80017a6:	ba1b      	rev	r3, r3
 80017a8:	9313      	str	r3, [sp, #76]	; 0x4c
 80017aa:	ae42      	add	r6, sp, #264	; 0x108
 80017ac:	ab12      	add	r3, sp, #72	; 0x48
 80017ae:	6819      	ldr	r1, [r3, #0]
 80017b0:	f853 5c38 	ldr.w	r5, [r3, #-56]
 80017b4:	f853 4c14 	ldr.w	r4, [r3, #-20]
 80017b8:	f853 2c34 	ldr.w	r2, [r3, #-52]
 80017bc:	442c      	add	r4, r5
 80017be:	0a8d      	lsrs	r5, r1, #10
 80017c0:	ea85 4571 	eor.w	r5, r5, r1, ror #17
 80017c4:	ea85 41f1 	eor.w	r1, r5, r1, ror #19
 80017c8:	08d7      	lsrs	r7, r2, #3
 80017ca:	f853 5c10 	ldr.w	r5, [r3, #-16]
 80017ce:	4421      	add	r1, r4
 80017d0:	ea87 17f2 	eor.w	r7, r7, r2, ror #7
 80017d4:	685c      	ldr	r4, [r3, #4]
 80017d6:	ea87 47b2 	eor.w	r7, r7, r2, ror #18
 80017da:	4439      	add	r1, r7
 80017dc:	442a      	add	r2, r5
 80017de:	0aa5      	lsrs	r5, r4, #10
 80017e0:	6099      	str	r1, [r3, #8]
 80017e2:	ea85 4574 	eor.w	r5, r5, r4, ror #17
 80017e6:	f853 1c30 	ldr.w	r1, [r3, #-48]
 80017ea:	ea85 44f4 	eor.w	r4, r5, r4, ror #19
 80017ee:	4422      	add	r2, r4
 80017f0:	08cc      	lsrs	r4, r1, #3
 80017f2:	ea84 14f1 	eor.w	r4, r4, r1, ror #7
 80017f6:	ea84 41b1 	eor.w	r1, r4, r1, ror #18
 80017fa:	4411      	add	r1, r2
 80017fc:	60d9      	str	r1, [r3, #12]
 80017fe:	3308      	adds	r3, #8
 8001800:	42b3      	cmp	r3, r6
 8001802:	d1d4      	bne.n	80017ae <SHA256Transform+0x6e>
 8001804:	4e66      	ldr	r6, [pc, #408]	; (80019a0 <SHA256Transform+0x260>)
 8001806:	6803      	ldr	r3, [r0, #0]
 8001808:	6902      	ldr	r2, [r0, #16]
 800180a:	6844      	ldr	r4, [r0, #4]
 800180c:	6941      	ldr	r1, [r0, #20]
 800180e:	f8d0 a008 	ldr.w	sl, [r0, #8]
 8001812:	6985      	ldr	r5, [r0, #24]
 8001814:	f8d0 800c 	ldr.w	r8, [r0, #12]
 8001818:	f8d0 901c 	ldr.w	r9, [r0, #28]
 800181c:	2701      	movs	r7, #1
 800181e:	6037      	str	r7, [r6, #0]
 8001820:	6836      	ldr	r6, [r6, #0]
 8001822:	9603      	str	r6, [sp, #12]
 8001824:	4e5f      	ldr	r6, [pc, #380]	; (80019a4 <SHA256Transform+0x264>)
 8001826:	6837      	ldr	r7, [r6, #0]
 8001828:	9703      	str	r7, [sp, #12]
 800182a:	9f03      	ldr	r7, [sp, #12]
 800182c:	3701      	adds	r7, #1
 800182e:	d127      	bne.n	8001880 <SHA256Transform+0x140>
 8001830:	9f03      	ldr	r7, [sp, #12]
 8001832:	6037      	str	r7, [r6, #0]
 8001834:	6836      	ldr	r6, [r6, #0]
 8001836:	9603      	str	r6, [sp, #12]
 8001838:	9e03      	ldr	r6, [sp, #12]
 800183a:	2e00      	cmp	r6, #0
 800183c:	d038      	beq.n	80018b0 <SHA256Transform+0x170>
 800183e:	6803      	ldr	r3, [r0, #0]
 8001840:	4e59      	ldr	r6, [pc, #356]	; (80019a8 <SHA256Transform+0x268>)
 8001842:	4f59      	ldr	r7, [pc, #356]	; (80019a8 <SHA256Transform+0x268>)
 8001844:	69c1      	ldr	r1, [r0, #28]
 8001846:	6985      	ldr	r5, [r0, #24]
 8001848:	68c2      	ldr	r2, [r0, #12]
 800184a:	f8d0 9014 	ldr.w	r9, [r0, #20]
 800184e:	f8d0 b008 	ldr.w	fp, [r0, #8]
 8001852:	f8d0 c004 	ldr.w	ip, [r0, #4]
 8001856:	405e      	eors	r6, r3
 8001858:	6903      	ldr	r3, [r0, #16]
 800185a:	6006      	str	r6, [r0, #0]
 800185c:	405f      	eors	r7, r3
 800185e:	ea82 0405 	eor.w	r4, r2, r5
 8001862:	ea87 0301 	eor.w	r3, r7, r1
 8001866:	ea8b 0a09 	eor.w	sl, fp, r9
 800186a:	6107      	str	r7, [r0, #16]
 800186c:	ea87 080c 	eor.w	r8, r7, ip
 8001870:	4072      	eors	r2, r6
 8001872:	ea8b 0101 	eor.w	r1, fp, r1
 8001876:	ea8c 0505 	eor.w	r5, ip, r5
 800187a:	ea86 0909 	eor.w	r9, r6, r9
 800187e:	e017      	b.n	80018b0 <SHA256Transform+0x170>
 8001880:	4f49      	ldr	r7, [pc, #292]	; (80019a8 <SHA256Transform+0x268>)
 8001882:	4e49      	ldr	r6, [pc, #292]	; (80019a8 <SHA256Transform+0x268>)
 8001884:	405f      	eors	r7, r3
 8001886:	4056      	eors	r6, r2
 8001888:	ea88 0c05 	eor.w	ip, r8, r5
 800188c:	ea8a 0b01 	eor.w	fp, sl, r1
 8001890:	ea89 0a0a 	eor.w	sl, r9, sl
 8001894:	ea86 0309 	eor.w	r3, r6, r9
 8001898:	ea87 0208 	eor.w	r2, r7, r8
 800189c:	4065      	eors	r5, r4
 800189e:	ea87 0901 	eor.w	r9, r7, r1
 80018a2:	ea86 0804 	eor.w	r8, r6, r4
 80018a6:	4651      	mov	r1, sl
 80018a8:	6007      	str	r7, [r0, #0]
 80018aa:	6106      	str	r6, [r0, #16]
 80018ac:	46da      	mov	sl, fp
 80018ae:	4664      	mov	r4, ip
 80018b0:	f04f 0c00 	mov.w	ip, #0
 80018b4:	f10c 0710 	add.w	r7, ip, #16
 80018b8:	f8df b0f0 	ldr.w	fp, [pc, #240]	; 80019ac <SHA256Transform+0x26c>
 80018bc:	466e      	mov	r6, sp
 80018be:	59be      	ldr	r6, [r7, r6]
 80018c0:	f85c 700b 	ldr.w	r7, [ip, fp]
 80018c4:	4437      	add	r7, r6
 80018c6:	ea4f 16b2 	mov.w	r6, r2, ror #6
 80018ca:	ea86 26f2 	eor.w	r6, r6, r2, ror #11
 80018ce:	ea86 6672 	eor.w	r6, r6, r2, ror #25
 80018d2:	4437      	add	r7, r6
 80018d4:	ea85 0601 	eor.w	r6, r5, r1
 80018d8:	4016      	ands	r6, r2
 80018da:	406e      	eors	r6, r5
 80018dc:	443e      	add	r6, r7
 80018de:	44b1      	add	r9, r6
 80018e0:	ea44 0603 	orr.w	r6, r4, r3
 80018e4:	ea06 060a 	and.w	r6, r6, sl
 80018e8:	ea04 0703 	and.w	r7, r4, r3
 80018ec:	433e      	orrs	r6, r7
 80018ee:	ea4f 07b3 	mov.w	r7, r3, ror #2
 80018f2:	ea87 3773 	eor.w	r7, r7, r3, ror #13
 80018f6:	ea87 57b3 	eor.w	r7, r7, r3, ror #22
 80018fa:	443e      	add	r6, r7
 80018fc:	af04      	add	r7, sp, #16
 80018fe:	44e3      	add	fp, ip
 8001900:	4467      	add	r7, ip
 8001902:	f8db b004 	ldr.w	fp, [fp, #4]
 8001906:	687f      	ldr	r7, [r7, #4]
 8001908:	44c8      	add	r8, r9
 800190a:	44bb      	add	fp, r7
 800190c:	ea81 0702 	eor.w	r7, r1, r2
 8001910:	ea08 0707 	and.w	r7, r8, r7
 8001914:	445d      	add	r5, fp
 8001916:	404f      	eors	r7, r1
 8001918:	443d      	add	r5, r7
 800191a:	ea4f 17b8 	mov.w	r7, r8, ror #6
 800191e:	444e      	add	r6, r9
 8001920:	ea87 27f8 	eor.w	r7, r7, r8, ror #11
 8001924:	ea87 6778 	eor.w	r7, r7, r8, ror #25
 8001928:	ea46 0b03 	orr.w	fp, r6, r3
 800192c:	443d      	add	r5, r7
 800192e:	ea0b 0b04 	and.w	fp, fp, r4
 8001932:	ea06 0703 	and.w	r7, r6, r3
 8001936:	ea4b 0b07 	orr.w	fp, fp, r7
 800193a:	ea4f 07b6 	mov.w	r7, r6, ror #2
 800193e:	ea87 3776 	eor.w	r7, r7, r6, ror #13
 8001942:	ea87 57b6 	eor.w	r7, r7, r6, ror #22
 8001946:	f10c 0c08 	add.w	ip, ip, #8
 800194a:	44bb      	add	fp, r7
 800194c:	f5bc 7f80 	cmp.w	ip, #256	; 0x100
 8001950:	44aa      	add	sl, r5
 8001952:	44ab      	add	fp, r5
 8001954:	d008      	beq.n	8001968 <SHA256Transform+0x228>
 8001956:	4689      	mov	r9, r1
 8001958:	4615      	mov	r5, r2
 800195a:	4641      	mov	r1, r8
 800195c:	4652      	mov	r2, sl
 800195e:	46a0      	mov	r8, r4
 8001960:	469a      	mov	sl, r3
 8001962:	4634      	mov	r4, r6
 8001964:	465b      	mov	r3, fp
 8001966:	e7a5      	b.n	80018b4 <SHA256Transform+0x174>
 8001968:	6845      	ldr	r5, [r0, #4]
 800196a:	6807      	ldr	r7, [r0, #0]
 800196c:	442e      	add	r6, r5
 800196e:	6885      	ldr	r5, [r0, #8]
 8001970:	6046      	str	r6, [r0, #4]
 8001972:	442b      	add	r3, r5
 8001974:	6083      	str	r3, [r0, #8]
 8001976:	68c3      	ldr	r3, [r0, #12]
 8001978:	441c      	add	r4, r3
 800197a:	6903      	ldr	r3, [r0, #16]
 800197c:	60c4      	str	r4, [r0, #12]
 800197e:	4453      	add	r3, sl
 8001980:	6103      	str	r3, [r0, #16]
 8001982:	6943      	ldr	r3, [r0, #20]
 8001984:	4443      	add	r3, r8
 8001986:	6143      	str	r3, [r0, #20]
 8001988:	6983      	ldr	r3, [r0, #24]
 800198a:	441a      	add	r2, r3
 800198c:	69c3      	ldr	r3, [r0, #28]
 800198e:	6182      	str	r2, [r0, #24]
 8001990:	445f      	add	r7, fp
 8001992:	4419      	add	r1, r3
 8001994:	6007      	str	r7, [r0, #0]
 8001996:	61c1      	str	r1, [r0, #28]
 8001998:	b045      	add	sp, #276	; 0x114
 800199a:	e8bd 8ff0 	ldmia.w	sp!, {r4, r5, r6, r7, r8, r9, sl, fp, pc}
 800199e:	bf00      	nop
 80019a0:	40023008 	.word	0x40023008
 80019a4:	40023000 	.word	0x40023000
 80019a8:	a5a5f0f0 	.word	0xa5a5f0f0
 80019ac:	08004954 	.word	0x08004954

080019b0 <AES_keyschedule_enc>:
 80019b0:	b530      	push	{r4, r5, lr}
 80019b2:	2300      	movs	r3, #0
 80019b4:	1095      	asrs	r5, r2, #2
 80019b6:	42ab      	cmp	r3, r5
 80019b8:	da06      	bge.n	80019c8 <AES_keyschedule_enc+0x18>
 80019ba:	f850 4023 	ldr.w	r4, [r0, r3, lsl #2]
 80019be:	ba24      	rev	r4, r4
 80019c0:	f841 4023 	str.w	r4, [r1, r3, lsl #2]
 80019c4:	3301      	adds	r3, #1
 80019c6:	e7f6      	b.n	80019b6 <AES_keyschedule_enc+0x6>
 80019c8:	4608      	mov	r0, r1
 80019ca:	e8bd 4030 	ldmia.w	sp!, {r4, r5, lr}
 80019ce:	f7ff bdfd 	b.w	80015cc <AES_keyschedule_enc_LL>
	...

080019d4 <AES_keyschedule_dec>:
 80019d4:	b5f8      	push	{r3, r4, r5, r6, r7, lr}
 80019d6:	4615      	mov	r5, r2
 80019d8:	460c      	mov	r4, r1
 80019da:	f7ff ffe9 	bl	80019b0 <AES_keyschedule_enc>
 80019de:	10ea      	asrs	r2, r5, #3
 80019e0:	3203      	adds	r2, #3
 80019e2:	0052      	lsls	r2, r2, #1
 80019e4:	2501      	movs	r5, #1
 80019e6:	4295      	cmp	r5, r2
 80019e8:	da6c      	bge.n	8001ac4 <AES_keyschedule_dec+0xf0>
 80019ea:	f854 1f10 	ldr.w	r1, [r4, #16]!
 80019ee:	4836      	ldr	r0, [pc, #216]	; (8001ac8 <AES_keyschedule_dec+0xf4>)
 80019f0:	4b36      	ldr	r3, [pc, #216]	; (8001acc <AES_keyschedule_dec+0xf8>)
 80019f2:	b2ce      	uxtb	r6, r1
 80019f4:	3501      	adds	r5, #1
 80019f6:	5d86      	ldrb	r6, [r0, r6]
 80019f8:	f853 7026 	ldr.w	r7, [r3, r6, lsl #2]
 80019fc:	0e0e      	lsrs	r6, r1, #24
 80019fe:	5d86      	ldrb	r6, [r0, r6]
 8001a00:	f853 6026 	ldr.w	r6, [r3, r6, lsl #2]
 8001a04:	ea86 6637 	eor.w	r6, r6, r7, ror #24
 8001a08:	f3c1 4707 	ubfx	r7, r1, #16, #8
 8001a0c:	f3c1 2107 	ubfx	r1, r1, #8, #8
 8001a10:	5dc7      	ldrb	r7, [r0, r7]
 8001a12:	5c41      	ldrb	r1, [r0, r1]
 8001a14:	f853 7027 	ldr.w	r7, [r3, r7, lsl #2]
 8001a18:	f853 1021 	ldr.w	r1, [r3, r1, lsl #2]
 8001a1c:	ea86 2637 	eor.w	r6, r6, r7, ror #8
 8001a20:	ea86 4131 	eor.w	r1, r6, r1, ror #16
 8001a24:	6021      	str	r1, [r4, #0]
 8001a26:	6861      	ldr	r1, [r4, #4]
 8001a28:	b2ce      	uxtb	r6, r1
 8001a2a:	5d86      	ldrb	r6, [r0, r6]
 8001a2c:	f853 7026 	ldr.w	r7, [r3, r6, lsl #2]
 8001a30:	0e0e      	lsrs	r6, r1, #24
 8001a32:	5d86      	ldrb	r6, [r0, r6]
 8001a34:	f853 6026 	ldr.w	r6, [r3, r6, lsl #2]
 8001a38:	ea86 6637 	eor.w	r6, r6, r7, ror #24
 8001a3c:	f3c1 4707 	ubfx	r7, r1, #16, #8
 8001a40:	f3c1 2107 	ubfx	r1, r1, #8, #8
 8001a44:	5dc7      	ldrb	r7, [r0, r7]
 8001a46:	5c41      	ldrb	r1, [r0, r1]
 8001a48:	f853 7027 	ldr.w	r7, [r3, r7, lsl #2]
 8001a4c:	f853 1021 	ldr.w	r1, [r3, r1, lsl #2]
 8001a50:	ea86 2637 	eor.w	r6, r6, r7, ror #8
 8001a54:	ea86 4131 	eor.w	r1, r6, r1, ror #16
 8001a58:	6061      	str	r1, [r4, #4]
 8001a5a:	68a1      	ldr	r1, [r4, #8]
 8001a5c:	b2ce      	uxtb	r6, r1
 8001a5e:	5d86      	ldrb	r6, [r0, r6]
 8001a60:	f853 7026 	ldr.w	r7, [r3, r6, lsl #2]
 8001a64:	0e0e      	lsrs	r6, r1, #24
 8001a66:	5d86      	ldrb	r6, [r0, r6]
 8001a68:	f853 6026 	ldr.w	r6, [r3, r6, lsl #2]
 8001a6c:	ea86 6637 	eor.w	r6, r6, r7, ror #24
 8001a70:	f3c1 4707 	ubfx	r7, r1, #16, #8
 8001a74:	f3c1 2107 	ubfx	r1, r1, #8, #8
 8001a78:	5dc7      	ldrb	r7, [r0, r7]
 8001a7a:	5c41      	ldrb	r1, [r0, r1]
 8001a7c:	f853 7027 	ldr.w	r7, [r3, r7, lsl #2]
 8001a80:	f853 1021 	ldr.w	r1, [r3, r1, lsl #2]
 8001a84:	ea86 2637 	eor.w	r6, r6, r7, ror #8
 8001a88:	ea86 4131 	eor.w	r1, r6, r1, ror #16
 8001a8c:	60a1      	str	r1, [r4, #8]
 8001a8e:	68e1      	ldr	r1, [r4, #12]
 8001a90:	b2ce      	uxtb	r6, r1
 8001a92:	5d86      	ldrb	r6, [r0, r6]
 8001a94:	f853 7026 	ldr.w	r7, [r3, r6, lsl #2]
 8001a98:	0e0e      	lsrs	r6, r1, #24
 8001a9a:	5d86      	ldrb	r6, [r0, r6]
 8001a9c:	f853 6026 	ldr.w	r6, [r3, r6, lsl #2]
 8001aa0:	ea86 6637 	eor.w	r6, r6, r7, ror #24
 8001aa4:	f3c1 4707 	ubfx	r7, r1, #16, #8
 8001aa8:	f3c1 2107 	ubfx	r1, r1, #8, #8
 8001aac:	5dc7      	ldrb	r7, [r0, r7]
 8001aae:	5c41      	ldrb	r1, [r0, r1]
 8001ab0:	f853 7027 	ldr.w	r7, [r3, r7, lsl #2]
 8001ab4:	f853 3021 	ldr.w	r3, [r3, r1, lsl #2]
 8001ab8:	ea86 2637 	eor.w	r6, r6, r7, ror #8
 8001abc:	ea86 4333 	eor.w	r3, r6, r3, ror #16
 8001ac0:	60e3      	str	r3, [r4, #12]
 8001ac2:	e790      	b.n	80019e6 <AES_keyschedule_dec+0x12>
 8001ac4:	bdf8      	pop	{r3, r4, r5, r6, r7, pc}
 8001ac6:	bf00      	nop
 8001ac8:	08004b54 	.word	0x08004b54
 8001acc:	08004554 	.word	0x08004554

08001ad0 <AESstdInit>:
 8001ad0:	e92d 47f0 	stmdb	sp!, {r4, r5, r6, r7, r8, r9, sl, lr}
 8001ad4:	460f      	mov	r7, r1
 8001ad6:	4604      	mov	r4, r0
 8001ad8:	4611      	mov	r1, r2
 8001ada:	2800      	cmp	r0, #0
 8001adc:	d05e      	beq.n	8001b9c <AESstdInit+0xcc>
 8001ade:	2f00      	cmp	r7, #0
 8001ae0:	d05c      	beq.n	8001b9c <AESstdInit+0xcc>
 8001ae2:	b91a      	cbnz	r2, 8001aec <AESstdInit+0x1c>
 8001ae4:	f003 0206 	and.w	r2, r3, #6
 8001ae8:	2a02      	cmp	r2, #2
 8001aea:	d157      	bne.n	8001b9c <AESstdInit+0xcc>
 8001aec:	6a62      	ldr	r2, [r4, #36]	; 0x24
 8001aee:	f022 0008 	bic.w	r0, r2, #8
 8001af2:	2810      	cmp	r0, #16
 8001af4:	d001      	beq.n	8001afa <AESstdInit+0x2a>
 8001af6:	2a20      	cmp	r2, #32
 8001af8:	d14c      	bne.n	8001b94 <AESstdInit+0xc4>
 8001afa:	f003 0c06 	and.w	ip, r3, #6
 8001afe:	f1bc 0f02 	cmp.w	ip, #2
 8001b02:	d003      	beq.n	8001b0c <AESstdInit+0x3c>
 8001b04:	6920      	ldr	r0, [r4, #16]
 8001b06:	3801      	subs	r0, #1
 8001b08:	280f      	cmp	r0, #15
 8001b0a:	d843      	bhi.n	8001b94 <AESstdInit+0xc4>
 8001b0c:	7920      	ldrb	r0, [r4, #4]
 8001b0e:	60e1      	str	r1, [r4, #12]
 8001b10:	f020 0506 	bic.w	r5, r0, #6
 8001b14:	f1bc 0f02 	cmp.w	ip, #2
 8001b18:	7125      	strb	r5, [r4, #4]
 8001b1a:	d103      	bne.n	8001b24 <AESstdInit+0x54>
 8001b1c:	f010 0501 	ands.w	r5, r0, #1
 8001b20:	d026      	beq.n	8001b70 <AESstdInit+0xa0>
 8001b22:	e031      	b.n	8001b88 <AESstdInit+0xb8>
 8001b24:	2600      	movs	r6, #0
 8001b26:	f8d4 9010 	ldr.w	r9, [r4, #16]
 8001b2a:	6166      	str	r6, [r4, #20]
 8001b2c:	61a6      	str	r6, [r4, #24]
 8001b2e:	61e6      	str	r6, [r4, #28]
 8001b30:	6226      	str	r6, [r4, #32]
 8001b32:	454e      	cmp	r6, r9
 8001b34:	daf2      	bge.n	8001b1c <AESstdInit+0x4c>
 8001b36:	4d1b      	ldr	r5, [pc, #108]	; (8001ba4 <AESstdInit+0xd4>)
 8001b38:	f811 a006 	ldrb.w	sl, [r1, r6]
 8001b3c:	f04f 0804 	mov.w	r8, #4
 8001b40:	4035      	ands	r5, r6
 8001b42:	fb96 f8f8 	sdiv	r8, r6, r8
 8001b46:	2d00      	cmp	r5, #0
 8001b48:	eb04 0888 	add.w	r8, r4, r8, lsl #2
 8001b4c:	da03      	bge.n	8001b56 <AESstdInit+0x86>
 8001b4e:	3d01      	subs	r5, #1
 8001b50:	f065 0503 	orn	r5, r5, #3
 8001b54:	3501      	adds	r5, #1
 8001b56:	f1c5 0503 	rsb	r5, r5, #3
 8001b5a:	00ed      	lsls	r5, r5, #3
 8001b5c:	fa0a fa05 	lsl.w	sl, sl, r5
 8001b60:	f8d8 5014 	ldr.w	r5, [r8, #20]
 8001b64:	ea45 0a0a 	orr.w	sl, r5, sl
 8001b68:	f8c8 a014 	str.w	sl, [r8, #20]
 8001b6c:	3601      	adds	r6, #1
 8001b6e:	e7e0      	b.n	8001b32 <AESstdInit+0x62>
 8001b70:	f013 0f01 	tst.w	r3, #1
 8001b74:	60a7      	str	r7, [r4, #8]
 8001b76:	4638      	mov	r0, r7
 8001b78:	f104 0128 	add.w	r1, r4, #40	; 0x28
 8001b7c:	d002      	beq.n	8001b84 <AESstdInit+0xb4>
 8001b7e:	f1bc 0f06 	cmp.w	ip, #6
 8001b82:	d104      	bne.n	8001b8e <AESstdInit+0xbe>
 8001b84:	f7ff ff14 	bl	80019b0 <AES_keyschedule_enc>
 8001b88:	2000      	movs	r0, #0
 8001b8a:	e8bd 87f0 	ldmia.w	sp!, {r4, r5, r6, r7, r8, r9, sl, pc}
 8001b8e:	f7ff ff21 	bl	80019d4 <AES_keyschedule_dec>
 8001b92:	e7f9      	b.n	8001b88 <AESstdInit+0xb8>
 8001b94:	f640 401f 	movw	r0, #3103	; 0xc1f
 8001b98:	e8bd 87f0 	ldmia.w	sp!, {r4, r5, r6, r7, r8, r9, sl, pc}
 8001b9c:	f44f 6042 	mov.w	r0, #3104	; 0xc20
 8001ba0:	e8bd 87f0 	ldmia.w	sp!, {r4, r5, r6, r7, r8, r9, sl, pc}
 8001ba4:	80000003 	.word	0x80000003

08001ba8 <AES_general_SW_dec>:
 8001ba8:	e92d 4ff7 	stmdb	sp!, {r0, r1, r2, r4, r5, r6, r7, r8, r9, sl, fp, lr}
 8001bac:	2500      	movs	r5, #0
 8001bae:	9501      	str	r5, [sp, #4]
 8001bb0:	4da6      	ldr	r5, [pc, #664]	; (8001e4c <AES_general_SW_dec+0x2a4>)
 8001bb2:	2601      	movs	r6, #1
 8001bb4:	602e      	str	r6, [r5, #0]
 8001bb6:	682d      	ldr	r5, [r5, #0]
 8001bb8:	9501      	str	r5, [sp, #4]
 8001bba:	4da5      	ldr	r5, [pc, #660]	; (8001e50 <AES_general_SW_dec+0x2a8>)
 8001bbc:	682e      	ldr	r6, [r5, #0]
 8001bbe:	9601      	str	r6, [sp, #4]
 8001bc0:	10db      	asrs	r3, r3, #3
 8001bc2:	9e01      	ldr	r6, [sp, #4]
 8001bc4:	f103 0903 	add.w	r9, r3, #3
 8001bc8:	ea4f 1349 	mov.w	r3, r9, lsl #5
 8001bcc:	3601      	adds	r6, #1
 8001bce:	468b      	mov	fp, r1
 8001bd0:	eb02 0403 	add.w	r4, r2, r3
 8001bd4:	d117      	bne.n	8001c06 <AES_general_SW_dec+0x5e>
 8001bd6:	9e01      	ldr	r6, [sp, #4]
 8001bd8:	602e      	str	r6, [r5, #0]
 8001bda:	682d      	ldr	r5, [r5, #0]
 8001bdc:	9501      	str	r5, [sp, #4]
 8001bde:	9e01      	ldr	r6, [sp, #4]
 8001be0:	58d2      	ldr	r2, [r2, r3]
 8001be2:	6867      	ldr	r7, [r4, #4]
 8001be4:	6803      	ldr	r3, [r0, #0]
 8001be6:	6845      	ldr	r5, [r0, #4]
 8001be8:	b956      	cbnz	r6, 8001c00 <AES_general_SW_dec+0x58>
 8001bea:	ea82 0c03 	eor.w	ip, r2, r3
 8001bee:	6883      	ldr	r3, [r0, #8]
 8001bf0:	68a2      	ldr	r2, [r4, #8]
 8001bf2:	68c0      	ldr	r0, [r0, #12]
 8001bf4:	405a      	eors	r2, r3
 8001bf6:	68e3      	ldr	r3, [r4, #12]
 8001bf8:	406f      	eors	r7, r5
 8001bfa:	ea83 0800 	eor.w	r8, r3, r0
 8001bfe:	e00b      	b.n	8001c18 <AES_general_SW_dec+0x70>
 8001c00:	ea87 0c05 	eor.w	ip, r7, r5
 8001c04:	e005      	b.n	8001c12 <AES_general_SW_dec+0x6a>
 8001c06:	6866      	ldr	r6, [r4, #4]
 8001c08:	6845      	ldr	r5, [r0, #4]
 8001c0a:	58d2      	ldr	r2, [r2, r3]
 8001c0c:	6803      	ldr	r3, [r0, #0]
 8001c0e:	ea86 0c05 	eor.w	ip, r6, r5
 8001c12:	405a      	eors	r2, r3
 8001c14:	4690      	mov	r8, r2
 8001c16:	4617      	mov	r7, r2
 8001c18:	4b8e      	ldr	r3, [pc, #568]	; (8001e54 <AES_general_SW_dec+0x2ac>)
 8001c1a:	3c20      	subs	r4, #32
 8001c1c:	ea4f 601c 	mov.w	r0, ip, lsr #24
 8001c20:	b2fd      	uxtb	r5, r7
 8001c22:	f853 6020 	ldr.w	r6, [r3, r0, lsl #2]
 8001c26:	6920      	ldr	r0, [r4, #16]
 8001c28:	4070      	eors	r0, r6
 8001c2a:	f853 6025 	ldr.w	r6, [r3, r5, lsl #2]
 8001c2e:	f3c8 4507 	ubfx	r5, r8, #16, #8
 8001c32:	ea80 6036 	eor.w	r0, r0, r6, ror #24
 8001c36:	f853 6025 	ldr.w	r6, [r3, r5, lsl #2]
 8001c3a:	ea80 2636 	eor.w	r6, r0, r6, ror #8
 8001c3e:	f3c2 2007 	ubfx	r0, r2, #8, #8
 8001c42:	fa5f fa88 	uxtb.w	sl, r8
 8001c46:	f853 0020 	ldr.w	r0, [r3, r0, lsl #2]
 8001c4a:	f853 a02a 	ldr.w	sl, [r3, sl, lsl #2]
 8001c4e:	ea86 4630 	eor.w	r6, r6, r0, ror #16
 8001c52:	0e38      	lsrs	r0, r7, #24
 8001c54:	f109 39ff 	add.w	r9, r9, #4294967295	; 0xffffffff
 8001c58:	f853 5020 	ldr.w	r5, [r3, r0, lsl #2]
 8001c5c:	6960      	ldr	r0, [r4, #20]
 8001c5e:	4068      	eors	r0, r5
 8001c60:	b2d5      	uxtb	r5, r2
 8001c62:	f1b9 0f00 	cmp.w	r9, #0
 8001c66:	f853 5025 	ldr.w	r5, [r3, r5, lsl #2]
 8001c6a:	ea80 6035 	eor.w	r0, r0, r5, ror #24
 8001c6e:	f3cc 4507 	ubfx	r5, ip, #16, #8
 8001c72:	f853 5025 	ldr.w	r5, [r3, r5, lsl #2]
 8001c76:	ea80 2035 	eor.w	r0, r0, r5, ror #8
 8001c7a:	f3c8 2507 	ubfx	r5, r8, #8, #8
 8001c7e:	ea4f 6818 	mov.w	r8, r8, lsr #24
 8001c82:	f853 5025 	ldr.w	r5, [r3, r5, lsl #2]
 8001c86:	f853 8028 	ldr.w	r8, [r3, r8, lsl #2]
 8001c8a:	ea80 4035 	eor.w	r0, r0, r5, ror #16
 8001c8e:	ea4f 6512 	mov.w	r5, r2, lsr #24
 8001c92:	f3c2 4207 	ubfx	r2, r2, #16, #8
 8001c96:	f853 1025 	ldr.w	r1, [r3, r5, lsl #2]
 8001c9a:	69a5      	ldr	r5, [r4, #24]
 8001c9c:	f853 2022 	ldr.w	r2, [r3, r2, lsl #2]
 8001ca0:	ea81 0105 	eor.w	r1, r1, r5
 8001ca4:	ea81 653a 	eor.w	r5, r1, sl, ror #24
 8001ca8:	f3c7 4a07 	ubfx	sl, r7, #16, #8
 8001cac:	69e1      	ldr	r1, [r4, #28]
 8001cae:	f853 a02a 	ldr.w	sl, [r3, sl, lsl #2]
 8001cb2:	ea85 253a 	eor.w	r5, r5, sl, ror #8
 8001cb6:	f3cc 2a07 	ubfx	sl, ip, #8, #8
 8001cba:	fa5f fc8c 	uxtb.w	ip, ip
 8001cbe:	ea88 0801 	eor.w	r8, r8, r1
 8001cc2:	f853 c02c 	ldr.w	ip, [r3, ip, lsl #2]
 8001cc6:	f853 a02a 	ldr.w	sl, [r3, sl, lsl #2]
 8001cca:	f3c7 2707 	ubfx	r7, r7, #8, #8
 8001cce:	ea88 683c 	eor.w	r8, r8, ip, ror #24
 8001cd2:	ea88 2832 	eor.w	r8, r8, r2, ror #8
 8001cd6:	f853 2027 	ldr.w	r2, [r3, r7, lsl #2]
 8001cda:	ea85 453a 	eor.w	r5, r5, sl, ror #16
 8001cde:	ea88 4832 	eor.w	r8, r8, r2, ror #16
 8001ce2:	ea4f 6216 	mov.w	r2, r6, lsr #24
 8001ce6:	dd5a      	ble.n	8001d9e <AES_general_SW_dec+0x1f6>
 8001ce8:	f853 7022 	ldr.w	r7, [r3, r2, lsl #2]
 8001cec:	6822      	ldr	r2, [r4, #0]
 8001cee:	68a1      	ldr	r1, [r4, #8]
 8001cf0:	407a      	eors	r2, r7
 8001cf2:	b2c7      	uxtb	r7, r0
 8001cf4:	fa5f fa88 	uxtb.w	sl, r8
 8001cf8:	f853 7027 	ldr.w	r7, [r3, r7, lsl #2]
 8001cfc:	f853 a02a 	ldr.w	sl, [r3, sl, lsl #2]
 8001d00:	ea82 6237 	eor.w	r2, r2, r7, ror #24
 8001d04:	f3c8 4707 	ubfx	r7, r8, #16, #8
 8001d08:	f853 7027 	ldr.w	r7, [r3, r7, lsl #2]
 8001d0c:	ea82 2c37 	eor.w	ip, r2, r7, ror #8
 8001d10:	f3c5 2207 	ubfx	r2, r5, #8, #8
 8001d14:	f853 2022 	ldr.w	r2, [r3, r2, lsl #2]
 8001d18:	ea8c 4c32 	eor.w	ip, ip, r2, ror #16
 8001d1c:	0e02      	lsrs	r2, r0, #24
 8001d1e:	f853 7022 	ldr.w	r7, [r3, r2, lsl #2]
 8001d22:	6862      	ldr	r2, [r4, #4]
 8001d24:	407a      	eors	r2, r7
 8001d26:	b2ef      	uxtb	r7, r5
 8001d28:	f853 7027 	ldr.w	r7, [r3, r7, lsl #2]
 8001d2c:	ea82 6237 	eor.w	r2, r2, r7, ror #24
 8001d30:	f3c6 4707 	ubfx	r7, r6, #16, #8
 8001d34:	f853 7027 	ldr.w	r7, [r3, r7, lsl #2]
 8001d38:	ea82 2737 	eor.w	r7, r2, r7, ror #8
 8001d3c:	f3c8 2207 	ubfx	r2, r8, #8, #8
 8001d40:	ea4f 6818 	mov.w	r8, r8, lsr #24
 8001d44:	f853 2022 	ldr.w	r2, [r3, r2, lsl #2]
 8001d48:	f853 8028 	ldr.w	r8, [r3, r8, lsl #2]
 8001d4c:	ea87 4732 	eor.w	r7, r7, r2, ror #16
 8001d50:	0e2a      	lsrs	r2, r5, #24
 8001d52:	f3c5 4507 	ubfx	r5, r5, #16, #8
 8001d56:	f853 2022 	ldr.w	r2, [r3, r2, lsl #2]
 8001d5a:	f853 5025 	ldr.w	r5, [r3, r5, lsl #2]
 8001d5e:	404a      	eors	r2, r1
 8001d60:	ea82 623a 	eor.w	r2, r2, sl, ror #24
 8001d64:	f3c0 4a07 	ubfx	sl, r0, #16, #8
 8001d68:	68e1      	ldr	r1, [r4, #12]
 8001d6a:	f853 a02a 	ldr.w	sl, [r3, sl, lsl #2]
 8001d6e:	ea82 223a 	eor.w	r2, r2, sl, ror #8
 8001d72:	f3c6 2a07 	ubfx	sl, r6, #8, #8
 8001d76:	b2f6      	uxtb	r6, r6
 8001d78:	f3c0 2007 	ubfx	r0, r0, #8, #8
 8001d7c:	f853 6026 	ldr.w	r6, [r3, r6, lsl #2]
 8001d80:	f853 a02a 	ldr.w	sl, [r3, sl, lsl #2]
 8001d84:	f853 3020 	ldr.w	r3, [r3, r0, lsl #2]
 8001d88:	ea88 0801 	eor.w	r8, r8, r1
 8001d8c:	ea88 6836 	eor.w	r8, r8, r6, ror #24
 8001d90:	ea88 2835 	eor.w	r8, r8, r5, ror #8
 8001d94:	ea82 423a 	eor.w	r2, r2, sl, ror #16
 8001d98:	ea88 4833 	eor.w	r8, r8, r3, ror #16
 8001d9c:	e73c      	b.n	8001c18 <AES_general_SW_dec+0x70>
 8001d9e:	4b2e      	ldr	r3, [pc, #184]	; (8001e58 <AES_general_SW_dec+0x2b0>)
 8001da0:	5c9f      	ldrb	r7, [r3, r2]
 8001da2:	b2c2      	uxtb	r2, r0
 8001da4:	5c9a      	ldrb	r2, [r3, r2]
 8001da6:	ea42 6707 	orr.w	r7, r2, r7, lsl #24
 8001daa:	f3c8 4207 	ubfx	r2, r8, #16, #8
 8001dae:	5c9a      	ldrb	r2, [r3, r2]
 8001db0:	ea47 4702 	orr.w	r7, r7, r2, lsl #16
 8001db4:	f3c5 2207 	ubfx	r2, r5, #8, #8
 8001db8:	5c9a      	ldrb	r2, [r3, r2]
 8001dba:	ea47 2702 	orr.w	r7, r7, r2, lsl #8
 8001dbe:	6822      	ldr	r2, [r4, #0]
 8001dc0:	407a      	eors	r2, r7
 8001dc2:	f8cb 2000 	str.w	r2, [fp]
 8001dc6:	0e02      	lsrs	r2, r0, #24
 8001dc8:	5c9f      	ldrb	r7, [r3, r2]
 8001dca:	b2ea      	uxtb	r2, r5
 8001dcc:	5c9a      	ldrb	r2, [r3, r2]
 8001dce:	ea42 6707 	orr.w	r7, r2, r7, lsl #24
 8001dd2:	f3c6 4207 	ubfx	r2, r6, #16, #8
 8001dd6:	5c9a      	ldrb	r2, [r3, r2]
 8001dd8:	ea47 4702 	orr.w	r7, r7, r2, lsl #16
 8001ddc:	f3c8 2207 	ubfx	r2, r8, #8, #8
 8001de0:	5c9a      	ldrb	r2, [r3, r2]
 8001de2:	ea47 2702 	orr.w	r7, r7, r2, lsl #8
 8001de6:	6862      	ldr	r2, [r4, #4]
 8001de8:	407a      	eors	r2, r7
 8001dea:	f8cb 2004 	str.w	r2, [fp, #4]
 8001dee:	0e2a      	lsrs	r2, r5, #24
 8001df0:	f3c5 4507 	ubfx	r5, r5, #16, #8
 8001df4:	5c9f      	ldrb	r7, [r3, r2]
 8001df6:	5d5d      	ldrb	r5, [r3, r5]
 8001df8:	fa5f f288 	uxtb.w	r2, r8
 8001dfc:	ea4f 6818 	mov.w	r8, r8, lsr #24
 8001e00:	5c9a      	ldrb	r2, [r3, r2]
 8001e02:	ea42 6707 	orr.w	r7, r2, r7, lsl #24
 8001e06:	f3c0 4207 	ubfx	r2, r0, #16, #8
 8001e0a:	f3c0 2007 	ubfx	r0, r0, #8, #8
 8001e0e:	5c9a      	ldrb	r2, [r3, r2]
 8001e10:	ea47 4702 	orr.w	r7, r7, r2, lsl #16
 8001e14:	f3c6 2207 	ubfx	r2, r6, #8, #8
 8001e18:	b2f6      	uxtb	r6, r6
 8001e1a:	5c9a      	ldrb	r2, [r3, r2]
 8001e1c:	ea47 2702 	orr.w	r7, r7, r2, lsl #8
 8001e20:	68a2      	ldr	r2, [r4, #8]
 8001e22:	407a      	eors	r2, r7
 8001e24:	f8cb 2008 	str.w	r2, [fp, #8]
 8001e28:	f813 7008 	ldrb.w	r7, [r3, r8]
 8001e2c:	5d9a      	ldrb	r2, [r3, r6]
 8001e2e:	5c1b      	ldrb	r3, [r3, r0]
 8001e30:	ea42 6207 	orr.w	r2, r2, r7, lsl #24
 8001e34:	ea42 4205 	orr.w	r2, r2, r5, lsl #16
 8001e38:	ea42 2303 	orr.w	r3, r2, r3, lsl #8
 8001e3c:	68e2      	ldr	r2, [r4, #12]
 8001e3e:	4053      	eors	r3, r2
 8001e40:	f8cb 300c 	str.w	r3, [fp, #12]
 8001e44:	b003      	add	sp, #12
 8001e46:	e8bd 8ff0 	ldmia.w	sp!, {r4, r5, r6, r7, r8, r9, sl, fp, pc}
 8001e4a:	bf00      	nop
 8001e4c:	40023008 	.word	0x40023008
 8001e50:	40023000 	.word	0x40023000
 8001e54:	08004554 	.word	0x08004554
 8001e58:	08004a54 	.word	0x08004a54

08001e5c <AES_CBC_Decrypt_Init>:
 8001e5c:	2305      	movs	r3, #5
 8001e5e:	f7ff be37 	b.w	8001ad0 <AESstdInit>

08001e62 <AES_CBC_Decrypt_Append>:
 8001e62:	e92d 4ff0 	stmdb	sp!, {r4, r5, r6, r7, r8, r9, sl, fp, lr}
 8001e66:	b08d      	sub	sp, #52	; 0x34
 8001e68:	f10d 0a20 	add.w	sl, sp, #32
 8001e6c:	4605      	mov	r5, r0
 8001e6e:	4688      	mov	r8, r1
 8001e70:	4616      	mov	r6, r2
 8001e72:	4650      	mov	r0, sl
 8001e74:	2100      	movs	r1, #0
 8001e76:	2210      	movs	r2, #16
 8001e78:	461f      	mov	r7, r3
 8001e7a:	f002 fa8b 	bl	8004394 <memset>
 8001e7e:	2d00      	cmp	r5, #0
 8001e80:	f000 80f6 	beq.w	8002070 <AES_CBC_Decrypt_Append+0x20e>
 8001e84:	f1b8 0f00 	cmp.w	r8, #0
 8001e88:	f000 80f2 	beq.w	8002070 <AES_CBC_Decrypt_Append+0x20e>
 8001e8c:	2f00      	cmp	r7, #0
 8001e8e:	f000 80ef 	beq.w	8002070 <AES_CBC_Decrypt_Append+0x20e>
 8001e92:	9816      	ldr	r0, [sp, #88]	; 0x58
 8001e94:	2800      	cmp	r0, #0
 8001e96:	f000 80eb 	beq.w	8002070 <AES_CBC_Decrypt_Append+0x20e>
 8001e9a:	2e0f      	cmp	r6, #15
 8001e9c:	f340 80eb 	ble.w	8002076 <AES_CBC_Decrypt_Append+0x214>
 8001ea0:	792b      	ldrb	r3, [r5, #4]
 8001ea2:	f013 0f06 	tst.w	r3, #6
 8001ea6:	f040 80e9 	bne.w	800207c <AES_CBC_Decrypt_Append+0x21a>
 8001eaa:	0732      	lsls	r2, r6, #28
 8001eac:	bf1d      	ittte	ne
 8001eae:	f043 0304 	orrne.w	r3, r3, #4
 8001eb2:	f1a6 0920 	subne.w	r9, r6, #32
 8001eb6:	712b      	strbne	r3, [r5, #4]
 8001eb8:	46b1      	moveq	r9, r6
 8001eba:	2400      	movs	r4, #0
 8001ebc:	454c      	cmp	r4, r9
 8001ebe:	da28      	bge.n	8001f12 <AES_CBC_Decrypt_Append+0xb0>
 8001ec0:	2300      	movs	r3, #0
 8001ec2:	eb08 0204 	add.w	r2, r8, r4
 8001ec6:	f103 0b10 	add.w	fp, r3, #16
 8001eca:	58d2      	ldr	r2, [r2, r3]
 8001ecc:	4669      	mov	r1, sp
 8001ece:	3304      	adds	r3, #4
 8001ed0:	ba12      	rev	r2, r2
 8001ed2:	2b10      	cmp	r3, #16
 8001ed4:	f84b 2001 	str.w	r2, [fp, r1]
 8001ed8:	d1f3      	bne.n	8001ec2 <AES_CBC_Decrypt_Append+0x60>
 8001eda:	6a6b      	ldr	r3, [r5, #36]	; 0x24
 8001edc:	a804      	add	r0, sp, #16
 8001ede:	4651      	mov	r1, sl
 8001ee0:	f105 0228 	add.w	r2, r5, #40	; 0x28
 8001ee4:	f7ff fe60 	bl	8001ba8 <AES_general_SW_dec>
 8001ee8:	2300      	movs	r3, #0
 8001eea:	18e9      	adds	r1, r5, r3
 8001eec:	f85a 2003 	ldr.w	r2, [sl, r3]
 8001ef0:	6948      	ldr	r0, [r1, #20]
 8001ef2:	f10d 0c10 	add.w	ip, sp, #16
 8001ef6:	4042      	eors	r2, r0
 8001ef8:	f85c 0003 	ldr.w	r0, [ip, r3]
 8001efc:	6148      	str	r0, [r1, #20]
 8001efe:	1939      	adds	r1, r7, r4
 8001f00:	f84a 2003 	str.w	r2, [sl, r3]
 8001f04:	ba12      	rev	r2, r2
 8001f06:	50ca      	str	r2, [r1, r3]
 8001f08:	3304      	adds	r3, #4
 8001f0a:	2b10      	cmp	r3, #16
 8001f0c:	d1ed      	bne.n	8001eea <AES_CBC_Decrypt_Append+0x88>
 8001f0e:	3410      	adds	r4, #16
 8001f10:	e7d4      	b.n	8001ebc <AES_CBC_Decrypt_Append+0x5a>
 8001f12:	42b4      	cmp	r4, r6
 8001f14:	db03      	blt.n	8001f1e <AES_CBC_Decrypt_Append+0xbc>
 8001f16:	9816      	ldr	r0, [sp, #88]	; 0x58
 8001f18:	6006      	str	r6, [r0, #0]
 8001f1a:	2000      	movs	r0, #0
 8001f1c:	e0b0      	b.n	8002080 <AES_CBC_Decrypt_Append+0x21e>
 8001f1e:	2300      	movs	r3, #0
 8001f20:	eb08 0904 	add.w	r9, r8, r4
 8001f24:	f103 0b10 	add.w	fp, r3, #16
 8001f28:	f859 2003 	ldr.w	r2, [r9, r3]
 8001f2c:	4669      	mov	r1, sp
 8001f2e:	3304      	adds	r3, #4
 8001f30:	ba12      	rev	r2, r2
 8001f32:	2b10      	cmp	r3, #16
 8001f34:	f84b 2001 	str.w	r2, [fp, r1]
 8001f38:	d1f2      	bne.n	8001f20 <AES_CBC_Decrypt_Append+0xbe>
 8001f3a:	f105 0c28 	add.w	ip, r5, #40	; 0x28
 8001f3e:	4662      	mov	r2, ip
 8001f40:	4651      	mov	r1, sl
 8001f42:	6a6b      	ldr	r3, [r5, #36]	; 0x24
 8001f44:	f8cd c00c 	str.w	ip, [sp, #12]
 8001f48:	a804      	add	r0, sp, #16
 8001f4a:	f7ff fe2d 	bl	8001ba8 <AES_general_SW_dec>
 8001f4e:	f104 0c10 	add.w	ip, r4, #16
 8001f52:	ebcc 0e06 	rsb	lr, ip, r6
 8001f56:	2104      	movs	r1, #4
 8001f58:	fb9e f1f1 	sdiv	r1, lr, r1
 8001f5c:	2300      	movs	r3, #0
 8001f5e:	9102      	str	r1, [sp, #8]
 8001f60:	461a      	mov	r2, r3
 8001f62:	f8dd a008 	ldr.w	sl, [sp, #8]
 8001f66:	4552      	cmp	r2, sl
 8001f68:	da18      	bge.n	8001f9c <AES_CBC_Decrypt_Append+0x13a>
 8001f6a:	eb09 0003 	add.w	r0, r9, r3
 8001f6e:	f103 0a10 	add.w	sl, r3, #16
 8001f72:	6900      	ldr	r0, [r0, #16]
 8001f74:	4669      	mov	r1, sp
 8001f76:	ba00      	rev	r0, r0
 8001f78:	f84a 0001 	str.w	r0, [sl, r1]
 8001f7c:	f10d 0a20 	add.w	sl, sp, #32
 8001f80:	3201      	adds	r2, #1
 8001f82:	f853 100a 	ldr.w	r1, [r3, sl]
 8001f86:	4048      	eors	r0, r1
 8001f88:	f843 000a 	str.w	r0, [r3, sl]
 8001f8c:	fa90 fb80 	rev.w	fp, r0
 8001f90:	1938      	adds	r0, r7, r4
 8001f92:	4418      	add	r0, r3
 8001f94:	3304      	adds	r3, #4
 8001f96:	f8c0 b010 	str.w	fp, [r0, #16]
 8001f9a:	e7e2      	b.n	8001f62 <AES_CBC_Decrypt_Append+0x100>
 8001f9c:	ea2a 71ea 	bic.w	r1, sl, sl, asr #31
 8001fa0:	008b      	lsls	r3, r1, #2
 8001fa2:	a80c      	add	r0, sp, #48	; 0x30
 8001fa4:	4418      	add	r0, r3
 8001fa6:	2200      	movs	r2, #0
 8001fa8:	449c      	add	ip, r3
 8001faa:	f840 2c20 	str.w	r2, [r0, #-32]
 8001fae:	ebae 0b81 	sub.w	fp, lr, r1, lsl #2
 8001fb2:	f8cd c004 	str.w	ip, [sp, #4]
 8001fb6:	455a      	cmp	r2, fp
 8001fb8:	da20      	bge.n	8001ffc <AES_CBC_Decrypt_Append+0x19a>
 8001fba:	9801      	ldr	r0, [sp, #4]
 8001fbc:	4440      	add	r0, r8
 8001fbe:	ea4f 0ac2 	mov.w	sl, r2, lsl #3
 8001fc2:	f810 9002 	ldrb.w	r9, [r0, r2]
 8001fc6:	f10d 0c30 	add.w	ip, sp, #48	; 0x30
 8001fca:	eb0c 0e81 	add.w	lr, ip, r1, lsl #2
 8001fce:	f1ca 0a18 	rsb	sl, sl, #24
 8001fd2:	fa09 f00a 	lsl.w	r0, r9, sl
 8001fd6:	4684      	mov	ip, r0
 8001fd8:	f85e 0c20 	ldr.w	r0, [lr, #-32]
 8001fdc:	ea8c 0000 	eor.w	r0, ip, r0
 8001fe0:	f84e 0c20 	str.w	r0, [lr, #-32]
 8001fe4:	9801      	ldr	r0, [sp, #4]
 8001fe6:	f85e ec10 	ldr.w	lr, [lr, #-16]
 8001fea:	4438      	add	r0, r7
 8001fec:	fa2e fa0a 	lsr.w	sl, lr, sl
 8001ff0:	ea8a 0a09 	eor.w	sl, sl, r9
 8001ff4:	f800 a002 	strb.w	sl, [r0, r2]
 8001ff8:	3201      	adds	r2, #1
 8001ffa:	e7dc      	b.n	8001fb6 <AES_CBC_Decrypt_Append+0x154>
 8001ffc:	aa0c      	add	r2, sp, #48	; 0x30
 8001ffe:	441a      	add	r2, r3
 8002000:	ea2b 7eeb 	bic.w	lr, fp, fp, asr #31
 8002004:	f04f 30ff 	mov.w	r0, #4294967295	; 0xffffffff
 8002008:	ea4f 0ece 	mov.w	lr, lr, lsl #3
 800200c:	fa20 fe0e 	lsr.w	lr, r0, lr
 8002010:	f852 0c10 	ldr.w	r0, [r2, #-16]
 8002014:	ea0e 0e00 	and.w	lr, lr, r0
 8002018:	f852 0c20 	ldr.w	r0, [r2, #-32]
 800201c:	ea8e 0000 	eor.w	r0, lr, r0
 8002020:	f842 0c20 	str.w	r0, [r2, #-32]
 8002024:	f10d 0820 	add.w	r8, sp, #32
 8002028:	a804      	add	r0, sp, #16
 800202a:	eb08 0e03 	add.w	lr, r8, r3
 800202e:	3101      	adds	r1, #1
 8002030:	4403      	add	r3, r0
 8002032:	2200      	movs	r2, #0
 8002034:	2903      	cmp	r1, #3
 8002036:	f102 0204 	add.w	r2, r2, #4
 800203a:	dc04      	bgt.n	8002046 <AES_CBC_Decrypt_Append+0x1e4>
 800203c:	f85e 0002 	ldr.w	r0, [lr, r2]
 8002040:	5098      	str	r0, [r3, r2]
 8002042:	3101      	adds	r1, #1
 8002044:	e7f6      	b.n	8002034 <AES_CBC_Decrypt_Append+0x1d2>
 8002046:	6a6b      	ldr	r3, [r5, #36]	; 0x24
 8002048:	9a03      	ldr	r2, [sp, #12]
 800204a:	a804      	add	r0, sp, #16
 800204c:	4641      	mov	r1, r8
 800204e:	f7ff fdab 	bl	8001ba8 <AES_general_SW_dec>
 8002052:	2300      	movs	r3, #0
 8002054:	18ea      	adds	r2, r5, r3
 8002056:	6951      	ldr	r1, [r2, #20]
 8002058:	f858 2003 	ldr.w	r2, [r8, r3]
 800205c:	404a      	eors	r2, r1
 800205e:	1939      	adds	r1, r7, r4
 8002060:	f848 2003 	str.w	r2, [r8, r3]
 8002064:	ba12      	rev	r2, r2
 8002066:	50ca      	str	r2, [r1, r3]
 8002068:	3304      	adds	r3, #4
 800206a:	2b10      	cmp	r3, #16
 800206c:	d1f2      	bne.n	8002054 <AES_CBC_Decrypt_Append+0x1f2>
 800206e:	e752      	b.n	8001f16 <AES_CBC_Decrypt_Append+0xb4>
 8002070:	f44f 6042 	mov.w	r0, #3104	; 0xc20
 8002074:	e004      	b.n	8002080 <AES_CBC_Decrypt_Append+0x21e>
 8002076:	f640 401d 	movw	r0, #3101	; 0xc1d
 800207a:	e001      	b.n	8002080 <AES_CBC_Decrypt_Append+0x21e>
 800207c:	f640 401e 	movw	r0, #3102	; 0xc1e
 8002080:	b00d      	add	sp, #52	; 0x34
 8002082:	e8bd 8ff0 	ldmia.w	sp!, {r4, r5, r6, r7, r8, r9, sl, fp, pc}

08002086 <AES_CBC_Decrypt_Finish>:
 8002086:	b138      	cbz	r0, 8002098 <AES_CBC_Decrypt_Finish+0x12>
 8002088:	b132      	cbz	r2, 8002098 <AES_CBC_Decrypt_Finish+0x12>
 800208a:	7903      	ldrb	r3, [r0, #4]
 800208c:	f043 0302 	orr.w	r3, r3, #2
 8002090:	7103      	strb	r3, [r0, #4]
 8002092:	2000      	movs	r0, #0
 8002094:	6010      	str	r0, [r2, #0]
 8002096:	4770      	bx	lr
 8002098:	f44f 6042 	mov.w	r0, #3104	; 0xc20
 800209c:	4770      	bx	lr

0800209e <SHA256Update>:
 800209e:	e92d 43f8 	stmdb	sp!, {r3, r4, r5, r6, r7, r8, r9, lr}
 80020a2:	4616      	mov	r6, r2
 80020a4:	6cc2      	ldr	r2, [r0, #76]	; 0x4c
 80020a6:	00f3      	lsls	r3, r6, #3
 80020a8:	4604      	mov	r4, r0
 80020aa:	f3c2 00c5 	ubfx	r0, r2, #3, #6
 80020ae:	441a      	add	r2, r3
 80020b0:	429a      	cmp	r2, r3
 80020b2:	460f      	mov	r7, r1
 80020b4:	64e2      	str	r2, [r4, #76]	; 0x4c
 80020b6:	d202      	bcs.n	80020be <SHA256Update+0x20>
 80020b8:	6d23      	ldr	r3, [r4, #80]	; 0x50
 80020ba:	3301      	adds	r3, #1
 80020bc:	6523      	str	r3, [r4, #80]	; 0x50
 80020be:	6d23      	ldr	r3, [r4, #80]	; 0x50
 80020c0:	eb03 7356 	add.w	r3, r3, r6, lsr #29
 80020c4:	6523      	str	r3, [r4, #80]	; 0x50
 80020c6:	1833      	adds	r3, r6, r0
 80020c8:	2b3f      	cmp	r3, #63	; 0x3f
 80020ca:	d929      	bls.n	8002120 <SHA256Update+0x82>
 80020cc:	f1c0 0540 	rsb	r5, r0, #64	; 0x40
 80020d0:	4420      	add	r0, r4
 80020d2:	4639      	mov	r1, r7
 80020d4:	300c      	adds	r0, #12
 80020d6:	462a      	mov	r2, r5
 80020d8:	f104 0854 	add.w	r8, r4, #84	; 0x54
 80020dc:	f104 090c 	add.w	r9, r4, #12
 80020e0:	f002 f94a 	bl	8004378 <memcpy>
 80020e4:	4640      	mov	r0, r8
 80020e6:	4649      	mov	r1, r9
 80020e8:	f7ff fb2a 	bl	8001740 <SHA256Transform>
 80020ec:	f105 033f 	add.w	r3, r5, #63	; 0x3f
 80020f0:	42b3      	cmp	r3, r6
 80020f2:	d213      	bcs.n	800211c <SHA256Update+0x7e>
 80020f4:	1979      	adds	r1, r7, r5
 80020f6:	078b      	lsls	r3, r1, #30
 80020f8:	d001      	beq.n	80020fe <SHA256Update+0x60>
 80020fa:	4640      	mov	r0, r8
 80020fc:	e00a      	b.n	8002114 <SHA256Update+0x76>
 80020fe:	460b      	mov	r3, r1
 8002100:	464a      	mov	r2, r9
 8002102:	3140      	adds	r1, #64	; 0x40
 8002104:	f853 0b04 	ldr.w	r0, [r3], #4
 8002108:	f842 0b04 	str.w	r0, [r2], #4
 800210c:	428b      	cmp	r3, r1
 800210e:	d1f9      	bne.n	8002104 <SHA256Update+0x66>
 8002110:	4640      	mov	r0, r8
 8002112:	4649      	mov	r1, r9
 8002114:	f7ff fb14 	bl	8001740 <SHA256Transform>
 8002118:	3540      	adds	r5, #64	; 0x40
 800211a:	e7e7      	b.n	80020ec <SHA256Update+0x4e>
 800211c:	2000      	movs	r0, #0
 800211e:	e000      	b.n	8002122 <SHA256Update+0x84>
 8002120:	2500      	movs	r5, #0
 8002122:	4420      	add	r0, r4
 8002124:	1979      	adds	r1, r7, r5
 8002126:	1b72      	subs	r2, r6, r5
 8002128:	300c      	adds	r0, #12
 800212a:	e8bd 43f8 	ldmia.w	sp!, {r3, r4, r5, r6, r7, r8, r9, lr}
 800212e:	f002 b923 	b.w	8004378 <memcpy>

08002132 <SHA256_Append>:
 8002132:	b538      	push	{r3, r4, r5, lr}
 8002134:	b178      	cbz	r0, 8002156 <SHA256_Append+0x24>
 8002136:	b171      	cbz	r1, 8002156 <SHA256_Append+0x24>
 8002138:	2a00      	cmp	r2, #0
 800213a:	db0c      	blt.n	8002156 <SHA256_Append+0x24>
 800213c:	7903      	ldrb	r3, [r0, #4]
 800213e:	f003 0304 	and.w	r3, r3, #4
 8002142:	f003 04ff 	and.w	r4, r3, #255	; 0xff
 8002146:	b91b      	cbnz	r3, 8002150 <SHA256_Append+0x1e>
 8002148:	f7ff ffa9 	bl	800209e <SHA256Update>
 800214c:	4620      	mov	r0, r4
 800214e:	bd38      	pop	{r3, r4, r5, pc}
 8002150:	f640 70a1 	movw	r0, #4001	; 0xfa1
 8002154:	bd38      	pop	{r3, r4, r5, pc}
 8002156:	f640 70a3 	movw	r0, #4003	; 0xfa3
 800215a:	bd38      	pop	{r3, r4, r5, pc}

0800215c <SHA256Init>:
 800215c:	4b0c      	ldr	r3, [pc, #48]	; (8002190 <SHA256Init+0x34>)
 800215e:	6543      	str	r3, [r0, #84]	; 0x54
 8002160:	4b0c      	ldr	r3, [pc, #48]	; (8002194 <SHA256Init+0x38>)
 8002162:	6583      	str	r3, [r0, #88]	; 0x58
 8002164:	4b0c      	ldr	r3, [pc, #48]	; (8002198 <SHA256Init+0x3c>)
 8002166:	65c3      	str	r3, [r0, #92]	; 0x5c
 8002168:	4b0c      	ldr	r3, [pc, #48]	; (800219c <SHA256Init+0x40>)
 800216a:	6603      	str	r3, [r0, #96]	; 0x60
 800216c:	4b0c      	ldr	r3, [pc, #48]	; (80021a0 <SHA256Init+0x44>)
 800216e:	6643      	str	r3, [r0, #100]	; 0x64
 8002170:	4b0c      	ldr	r3, [pc, #48]	; (80021a4 <SHA256Init+0x48>)
 8002172:	6683      	str	r3, [r0, #104]	; 0x68
 8002174:	4b0c      	ldr	r3, [pc, #48]	; (80021a8 <SHA256Init+0x4c>)
 8002176:	66c3      	str	r3, [r0, #108]	; 0x6c
 8002178:	f103 5374 	add.w	r3, r3, #1023410176	; 0x3d000000
 800217c:	f5a3 0323 	sub.w	r3, r3, #10682368	; 0xa30000
 8002180:	f6a3 4392 	subw	r3, r3, #3218	; 0xc92
 8002184:	6703      	str	r3, [r0, #112]	; 0x70
 8002186:	2300      	movs	r3, #0
 8002188:	64c3      	str	r3, [r0, #76]	; 0x4c
 800218a:	6503      	str	r3, [r0, #80]	; 0x50
 800218c:	4770      	bx	lr
 800218e:	bf00      	nop
 8002190:	6a09e667 	.word	0x6a09e667
 8002194:	bb67ae85 	.word	0xbb67ae85
 8002198:	3c6ef372 	.word	0x3c6ef372
 800219c:	a54ff53a 	.word	0xa54ff53a
 80021a0:	510e527f 	.word	0x510e527f
 80021a4:	9b05688c 	.word	0x9b05688c
 80021a8:	1f83d9ab 	.word	0x1f83d9ab

080021ac <SHA256_Init>:
 80021ac:	b508      	push	{r3, lr}
 80021ae:	b138      	cbz	r0, 80021c0 <SHA256_Init+0x14>
 80021b0:	7902      	ldrb	r2, [r0, #4]
 80021b2:	f022 0206 	bic.w	r2, r2, #6
 80021b6:	7102      	strb	r2, [r0, #4]
 80021b8:	f7ff ffd0 	bl	800215c <SHA256Init>
 80021bc:	2000      	movs	r0, #0
 80021be:	bd08      	pop	{r3, pc}
 80021c0:	f640 70a3 	movw	r0, #4003	; 0xfa3
 80021c4:	bd08      	pop	{r3, pc}

080021c6 <SHA256Final>:
 80021c6:	b5f7      	push	{r0, r1, r2, r4, r5, r6, r7, lr}
 80021c8:	2300      	movs	r3, #0
 80021ca:	4607      	mov	r7, r0
 80021cc:	460e      	mov	r6, r1
 80021ce:	2b03      	cmp	r3, #3
 80021d0:	bfd4      	ite	le
 80021d2:	214c      	movle	r1, #76	; 0x4c
 80021d4:	2148      	movgt	r1, #72	; 0x48
 80021d6:	4439      	add	r1, r7
 80021d8:	43da      	mvns	r2, r3
 80021da:	f002 0203 	and.w	r2, r2, #3
 80021de:	6849      	ldr	r1, [r1, #4]
 80021e0:	00d2      	lsls	r2, r2, #3
 80021e2:	fa21 f202 	lsr.w	r2, r1, r2
 80021e6:	f80d 2003 	strb.w	r2, [sp, r3]
 80021ea:	3301      	adds	r3, #1
 80021ec:	2b08      	cmp	r3, #8
 80021ee:	d1ee      	bne.n	80021ce <SHA256Final+0x8>
 80021f0:	6cfb      	ldr	r3, [r7, #76]	; 0x4c
 80021f2:	6d3d      	ldr	r5, [r7, #80]	; 0x50
 80021f4:	2400      	movs	r4, #0
 80021f6:	431c      	orrs	r4, r3
 80021f8:	08e2      	lsrs	r2, r4, #3
 80021fa:	ea42 7245 	orr.w	r2, r2, r5, lsl #29
 80021fe:	08eb      	lsrs	r3, r5, #3
 8002200:	243f      	movs	r4, #63	; 0x3f
 8002202:	2500      	movs	r5, #0
 8002204:	4014      	ands	r4, r2
 8002206:	401d      	ands	r5, r3
 8002208:	2d00      	cmp	r5, #0
 800220a:	bf08      	it	eq
 800220c:	2c38      	cmpeq	r4, #56	; 0x38
 800220e:	443c      	add	r4, r7
 8002210:	f04f 0380 	mov.w	r3, #128	; 0x80
 8002214:	f002 023f 	and.w	r2, r2, #63	; 0x3f
 8002218:	7323      	strb	r3, [r4, #12]
 800221a:	f102 0201 	add.w	r2, r2, #1
 800221e:	d214      	bcs.n	800224a <SHA256Final+0x84>
 8002220:	2a37      	cmp	r2, #55	; 0x37
 8002222:	f04f 0300 	mov.w	r3, #0
 8002226:	dc03      	bgt.n	8002230 <SHA256Final+0x6a>
 8002228:	18b9      	adds	r1, r7, r2
 800222a:	3201      	adds	r2, #1
 800222c:	730b      	strb	r3, [r1, #12]
 800222e:	e7f7      	b.n	8002220 <SHA256Final+0x5a>
 8002230:	18fa      	adds	r2, r7, r3
 8002232:	f81d 1003 	ldrb.w	r1, [sp, r3]
 8002236:	f882 1044 	strb.w	r1, [r2, #68]	; 0x44
 800223a:	3301      	adds	r3, #1
 800223c:	2b08      	cmp	r3, #8
 800223e:	d1f7      	bne.n	8002230 <SHA256Final+0x6a>
 8002240:	f107 0054 	add.w	r0, r7, #84	; 0x54
 8002244:	f107 010c 	add.w	r1, r7, #12
 8002248:	e01f      	b.n	800228a <SHA256Final+0xc4>
 800224a:	2a40      	cmp	r2, #64	; 0x40
 800224c:	d004      	beq.n	8002258 <SHA256Final+0x92>
 800224e:	18bb      	adds	r3, r7, r2
 8002250:	2100      	movs	r1, #0
 8002252:	7319      	strb	r1, [r3, #12]
 8002254:	3201      	adds	r2, #1
 8002256:	e7f8      	b.n	800224a <SHA256Final+0x84>
 8002258:	f107 0554 	add.w	r5, r7, #84	; 0x54
 800225c:	f107 040c 	add.w	r4, r7, #12
 8002260:	4628      	mov	r0, r5
 8002262:	4621      	mov	r1, r4
 8002264:	f7ff fa6c 	bl	8001740 <SHA256Transform>
 8002268:	2200      	movs	r2, #0
 800226a:	18b9      	adds	r1, r7, r2
 800226c:	3201      	adds	r2, #1
 800226e:	2300      	movs	r3, #0
 8002270:	2a38      	cmp	r2, #56	; 0x38
 8002272:	730b      	strb	r3, [r1, #12]
 8002274:	d1f9      	bne.n	800226a <SHA256Final+0xa4>
 8002276:	18fa      	adds	r2, r7, r3
 8002278:	f81d 1003 	ldrb.w	r1, [sp, r3]
 800227c:	f882 1044 	strb.w	r1, [r2, #68]	; 0x44
 8002280:	3301      	adds	r3, #1
 8002282:	2b08      	cmp	r3, #8
 8002284:	d1f7      	bne.n	8002276 <SHA256Final+0xb0>
 8002286:	4628      	mov	r0, r5
 8002288:	4621      	mov	r1, r4
 800228a:	f7ff fa59 	bl	8001740 <SHA256Transform>
 800228e:	2400      	movs	r4, #0
 8002290:	193b      	adds	r3, r7, r4
 8002292:	6d5b      	ldr	r3, [r3, #84]	; 0x54
 8002294:	ba1b      	rev	r3, r3
 8002296:	5133      	str	r3, [r6, r4]
 8002298:	3404      	adds	r4, #4
 800229a:	2c20      	cmp	r4, #32
 800229c:	d1f8      	bne.n	8002290 <SHA256Final+0xca>
 800229e:	f107 000c 	add.w	r0, r7, #12
 80022a2:	2100      	movs	r1, #0
 80022a4:	2240      	movs	r2, #64	; 0x40
 80022a6:	f002 f875 	bl	8004394 <memset>
 80022aa:	4622      	mov	r2, r4
 80022ac:	f107 0054 	add.w	r0, r7, #84	; 0x54
 80022b0:	2100      	movs	r1, #0
 80022b2:	f002 f86f 	bl	8004394 <memset>
 80022b6:	f107 004c 	add.w	r0, r7, #76	; 0x4c
 80022ba:	2100      	movs	r1, #0
 80022bc:	2208      	movs	r2, #8
 80022be:	f002 f869 	bl	8004394 <memset>
 80022c2:	b003      	add	sp, #12
 80022c4:	bdf0      	pop	{r4, r5, r6, r7, pc}

080022c6 <SHA256_Finish>:
 80022c6:	b570      	push	{r4, r5, r6, lr}
 80022c8:	460d      	mov	r5, r1
 80022ca:	b088      	sub	sp, #32
 80022cc:	4616      	mov	r6, r2
 80022ce:	4604      	mov	r4, r0
 80022d0:	b1c0      	cbz	r0, 8002304 <SHA256_Finish+0x3e>
 80022d2:	b1b9      	cbz	r1, 8002304 <SHA256_Finish+0x3e>
 80022d4:	b1b2      	cbz	r2, 8002304 <SHA256_Finish+0x3e>
 80022d6:	6883      	ldr	r3, [r0, #8]
 80022d8:	3b01      	subs	r3, #1
 80022da:	2b1f      	cmp	r3, #31
 80022dc:	d815      	bhi.n	800230a <SHA256_Finish+0x44>
 80022de:	7903      	ldrb	r3, [r0, #4]
 80022e0:	f043 0304 	orr.w	r3, r3, #4
 80022e4:	7103      	strb	r3, [r0, #4]
 80022e6:	4669      	mov	r1, sp
 80022e8:	f7ff ff6d 	bl	80021c6 <SHA256Final>
 80022ec:	2300      	movs	r3, #0
 80022ee:	68a2      	ldr	r2, [r4, #8]
 80022f0:	4293      	cmp	r3, r2
 80022f2:	da04      	bge.n	80022fe <SHA256_Finish+0x38>
 80022f4:	f81d 2003 	ldrb.w	r2, [sp, r3]
 80022f8:	54ea      	strb	r2, [r5, r3]
 80022fa:	3301      	adds	r3, #1
 80022fc:	e7f7      	b.n	80022ee <SHA256_Finish+0x28>
 80022fe:	6032      	str	r2, [r6, #0]
 8002300:	2000      	movs	r0, #0
 8002302:	e004      	b.n	800230e <SHA256_Finish+0x48>
 8002304:	f640 70a3 	movw	r0, #4003	; 0xfa3
 8002308:	e001      	b.n	800230e <SHA256_Finish+0x48>
 800230a:	f640 70a2 	movw	r0, #4002	; 0xfa2
 800230e:	b008      	add	sp, #32
 8002310:	bd70      	pop	{r4, r5, r6, pc}

08002312 <StAllocBig>:
 8002312:	88d3      	ldrh	r3, [r2, #6]
 8002314:	b5f0      	push	{r4, r5, r6, r7, lr}
 8002316:	1c4c      	adds	r4, r1, #1
 8002318:	f103 0608 	add.w	r6, r3, #8
 800231c:	00a4      	lsls	r4, r4, #2
 800231e:	8895      	ldrh	r5, [r2, #4]
 8002320:	19a7      	adds	r7, r4, r6
 8002322:	42af      	cmp	r7, r5
 8002324:	d80d      	bhi.n	8002342 <StAllocBig+0x30>
 8002326:	6815      	ldr	r5, [r2, #0]
 8002328:	18ef      	adds	r7, r5, r3
 800232a:	6007      	str	r7, [r0, #0]
 800232c:	6817      	ldr	r7, [r2, #0]
 800232e:	443e      	add	r6, r7
 8002330:	50ee      	str	r6, [r5, r3]
 8002332:	6803      	ldr	r3, [r0, #0]
 8002334:	7199      	strb	r1, [r3, #6]
 8002336:	88d3      	ldrh	r3, [r2, #6]
 8002338:	3308      	adds	r3, #8
 800233a:	441c      	add	r4, r3
 800233c:	80d4      	strh	r4, [r2, #6]
 800233e:	2000      	movs	r0, #0
 8002340:	bdf0      	pop	{r4, r5, r6, r7, pc}
 8002342:	f240 30ed 	movw	r0, #1005	; 0x3ed
 8002346:	bdf0      	pop	{r4, r5, r6, r7, pc}

08002348 <StFreeBig>:
 8002348:	6803      	ldr	r3, [r0, #0]
 800234a:	b14b      	cbz	r3, 8002360 <StFreeBig+0x18>
 800234c:	b141      	cbz	r1, 8002360 <StFreeBig+0x18>
 800234e:	88ca      	ldrh	r2, [r1, #6]
 8002350:	799b      	ldrb	r3, [r3, #6]
 8002352:	3a08      	subs	r2, #8
 8002354:	43db      	mvns	r3, r3
 8002356:	eb02 0383 	add.w	r3, r2, r3, lsl #2
 800235a:	80cb      	strh	r3, [r1, #6]
 800235c:	2300      	movs	r3, #0
 800235e:	6003      	str	r3, [r0, #0]
 8002360:	4770      	bx	lr

08002362 <InitBig>:
 8002362:	b510      	push	{r4, lr}
 8002364:	2301      	movs	r3, #1
 8002366:	7982      	ldrb	r2, [r0, #6]
 8002368:	3201      	adds	r2, #1
 800236a:	4293      	cmp	r3, r2
 800236c:	6802      	ldr	r2, [r0, #0]
 800236e:	d205      	bcs.n	800237c <InitBig+0x1a>
 8002370:	2400      	movs	r4, #0
 8002372:	f842 4023 	str.w	r4, [r2, r3, lsl #2]
 8002376:	3301      	adds	r3, #1
 8002378:	b29b      	uxth	r3, r3
 800237a:	e7f4      	b.n	8002366 <InitBig+0x4>
 800237c:	2301      	movs	r3, #1
 800237e:	2900      	cmp	r1, #0
 8002380:	8083      	strh	r3, [r0, #4]
 8002382:	bfb3      	iteet	lt
 8002384:	4249      	neglt	r1, r1
 8002386:	2300      	movge	r3, #0
 8002388:	71c3      	strbge	r3, [r0, #7]
 800238a:	71c3      	strblt	r3, [r0, #7]
 800238c:	6011      	str	r1, [r2, #0]
 800238e:	bd10      	pop	{r4, pc}

08002390 <CopyBig>:
 8002390:	8883      	ldrh	r3, [r0, #4]
 8002392:	798a      	ldrb	r2, [r1, #6]
 8002394:	429a      	cmp	r2, r3
 8002396:	b570      	push	{r4, r5, r6, lr}
 8002398:	d205      	bcs.n	80023a6 <CopyBig+0x16>
 800239a:	3201      	adds	r2, #1
 800239c:	429a      	cmp	r2, r3
 800239e:	d31e      	bcc.n	80023de <CopyBig+0x4e>
 80023a0:	f241 44b5 	movw	r4, #5301	; 0x14b5
 80023a4:	e000      	b.n	80023a8 <CopyBig+0x18>
 80023a6:	2400      	movs	r4, #0
 80023a8:	79c2      	ldrb	r2, [r0, #7]
 80023aa:	71ca      	strb	r2, [r1, #7]
 80023ac:	808b      	strh	r3, [r1, #4]
 80023ae:	2200      	movs	r2, #0
 80023b0:	429a      	cmp	r2, r3
 80023b2:	da07      	bge.n	80023c4 <CopyBig+0x34>
 80023b4:	6805      	ldr	r5, [r0, #0]
 80023b6:	f855 6022 	ldr.w	r6, [r5, r2, lsl #2]
 80023ba:	680d      	ldr	r5, [r1, #0]
 80023bc:	f845 6022 	str.w	r6, [r5, r2, lsl #2]
 80023c0:	3201      	adds	r2, #1
 80023c2:	e7f5      	b.n	80023b0 <CopyBig+0x20>
 80023c4:	2200      	movs	r2, #0
 80023c6:	798d      	ldrb	r5, [r1, #6]
 80023c8:	18d0      	adds	r0, r2, r3
 80023ca:	4285      	cmp	r5, r0
 80023cc:	db05      	blt.n	80023da <CopyBig+0x4a>
 80023ce:	680d      	ldr	r5, [r1, #0]
 80023d0:	2600      	movs	r6, #0
 80023d2:	f845 6020 	str.w	r6, [r5, r0, lsl #2]
 80023d6:	3201      	adds	r2, #1
 80023d8:	e7f5      	b.n	80023c6 <CopyBig+0x36>
 80023da:	4620      	mov	r0, r4
 80023dc:	bd70      	pop	{r4, r5, r6, pc}
 80023de:	f241 40b5 	movw	r0, #5301	; 0x14b5
 80023e2:	bd70      	pop	{r4, r5, r6, pc}

080023e4 <Add_Moduli_Big>:
 80023e4:	e92d 4ff8 	stmdb	sp!, {r3, r4, r5, r6, r7, r8, r9, sl, fp, lr}
 80023e8:	4616      	mov	r6, r2
 80023ea:	f8d0 9000 	ldr.w	r9, [r0]
 80023ee:	6817      	ldr	r7, [r2, #0]
 80023f0:	888b      	ldrh	r3, [r1, #4]
 80023f2:	8882      	ldrh	r2, [r0, #4]
 80023f4:	f8d1 8000 	ldr.w	r8, [r1]
 80023f8:	4293      	cmp	r3, r2
 80023fa:	bf34      	ite	cc
 80023fc:	469a      	movcc	sl, r3
 80023fe:	4692      	movcs	sl, r2
 8002400:	eb09 0c82 	add.w	ip, r9, r2, lsl #2
 8002404:	2500      	movs	r5, #0
 8002406:	7984      	ldrb	r4, [r0, #6]
 8002408:	eb05 0e02 	add.w	lr, r5, r2
 800240c:	3401      	adds	r4, #1
 800240e:	45a6      	cmp	lr, r4
 8002410:	f04f 0400 	mov.w	r4, #0
 8002414:	d203      	bcs.n	800241e <Add_Moduli_Big+0x3a>
 8002416:	f84c 4025 	str.w	r4, [ip, r5, lsl #2]
 800241a:	3501      	adds	r5, #1
 800241c:	e7f3      	b.n	8002406 <Add_Moduli_Big+0x22>
 800241e:	eb08 0c83 	add.w	ip, r8, r3, lsl #2
 8002422:	798d      	ldrb	r5, [r1, #6]
 8002424:	eb04 0e03 	add.w	lr, r4, r3
 8002428:	3501      	adds	r5, #1
 800242a:	45ae      	cmp	lr, r5
 800242c:	d204      	bcs.n	8002438 <Add_Moduli_Big+0x54>
 800242e:	2500      	movs	r5, #0
 8002430:	f84c 5024 	str.w	r5, [ip, r4, lsl #2]
 8002434:	3401      	adds	r4, #1
 8002436:	e7f4      	b.n	8002422 <Add_Moduli_Big+0x3e>
 8002438:	429a      	cmp	r2, r3
 800243a:	bf38      	it	cc
 800243c:	4608      	movcc	r0, r1
 800243e:	4631      	mov	r1, r6
 8002440:	f7ff ffa6 	bl	8002390 <CopyBig>
 8002444:	ea4f 0b8a 	mov.w	fp, sl, lsl #2
 8002448:	46d4      	mov	ip, sl
 800244a:	2200      	movs	r2, #0
 800244c:	2000      	movs	r0, #0
 800244e:	2100      	movs	r1, #0
 8002450:	455a      	cmp	r2, fp
 8002452:	d00f      	beq.n	8002474 <Add_Moduli_Big+0x90>
 8002454:	f859 3002 	ldr.w	r3, [r9, r2]
 8002458:	f858 4002 	ldr.w	r4, [r8, r2]
 800245c:	2500      	movs	r5, #0
 800245e:	18e4      	adds	r4, r4, r3
 8002460:	f145 0500 	adc.w	r5, r5, #0
 8002464:	1824      	adds	r4, r4, r0
 8002466:	eb45 0501 	adc.w	r5, r5, r1
 800246a:	50bc      	str	r4, [r7, r2]
 800246c:	4628      	mov	r0, r5
 800246e:	2100      	movs	r1, #0
 8002470:	3204      	adds	r2, #4
 8002472:	e7ed      	b.n	8002450 <Add_Moduli_Big+0x6c>
 8002474:	ea50 0301 	orrs.w	r3, r0, r1
 8002478:	88b1      	ldrh	r1, [r6, #4]
 800247a:	d104      	bne.n	8002486 <Add_Moduli_Big+0xa2>
 800247c:	f857 3021 	ldr.w	r3, [r7, r1, lsl #2]
 8002480:	b9b3      	cbnz	r3, 80024b0 <Add_Moduli_Big+0xcc>
 8002482:	e8bd 8ff8 	ldmia.w	sp!, {r3, r4, r5, r6, r7, r8, r9, sl, fp, pc}
 8002486:	58bb      	ldr	r3, [r7, r2]
 8002488:	f10a 4a80 	add.w	sl, sl, #1073741824	; 0x40000000
 800248c:	3301      	adds	r3, #1
 800248e:	f10a 3aff 	add.w	sl, sl, #4294967295	; 0xffffffff
 8002492:	50bb      	str	r3, [r7, r2]
 8002494:	eb07 038a 	add.w	r3, r7, sl, lsl #2
 8002498:	f853 2f04 	ldr.w	r2, [r3, #4]!
 800249c:	2a00      	cmp	r2, #0
 800249e:	d1ed      	bne.n	800247c <Add_Moduli_Big+0x98>
 80024a0:	458c      	cmp	ip, r1
 80024a2:	d8eb      	bhi.n	800247c <Add_Moduli_Big+0x98>
 80024a4:	685a      	ldr	r2, [r3, #4]
 80024a6:	3201      	adds	r2, #1
 80024a8:	f10c 0c01 	add.w	ip, ip, #1
 80024ac:	605a      	str	r2, [r3, #4]
 80024ae:	e7f3      	b.n	8002498 <Add_Moduli_Big+0xb4>
 80024b0:	3101      	adds	r1, #1
 80024b2:	80b1      	strh	r1, [r6, #4]
 80024b4:	e8bd 8ff8 	ldmia.w	sp!, {r3, r4, r5, r6, r7, r8, r9, sl, fp, pc}

080024b8 <IsZeroBig>:
 80024b8:	8883      	ldrh	r3, [r0, #4]
 80024ba:	2b01      	cmp	r3, #1
 80024bc:	d106      	bne.n	80024cc <IsZeroBig+0x14>
 80024be:	6803      	ldr	r3, [r0, #0]
 80024c0:	6818      	ldr	r0, [r3, #0]
 80024c2:	f1d0 0001 	rsbs	r0, r0, #1
 80024c6:	bf38      	it	cc
 80024c8:	2000      	movcc	r0, #0
 80024ca:	4770      	bx	lr
 80024cc:	2000      	movs	r0, #0
 80024ce:	4770      	bx	lr

080024d0 <SetZeroBig>:
 80024d0:	b510      	push	{r4, lr}
 80024d2:	2300      	movs	r3, #0
 80024d4:	71c3      	strb	r3, [r0, #7]
 80024d6:	7981      	ldrb	r1, [r0, #6]
 80024d8:	b29a      	uxth	r2, r3
 80024da:	3101      	adds	r1, #1
 80024dc:	428a      	cmp	r2, r1
 80024de:	f103 0301 	add.w	r3, r3, #1
 80024e2:	d204      	bcs.n	80024ee <SetZeroBig+0x1e>
 80024e4:	6801      	ldr	r1, [r0, #0]
 80024e6:	2400      	movs	r4, #0
 80024e8:	f841 4022 	str.w	r4, [r1, r2, lsl #2]
 80024ec:	e7f3      	b.n	80024d6 <SetZeroBig+0x6>
 80024ee:	2301      	movs	r3, #1
 80024f0:	8083      	strh	r3, [r0, #4]
 80024f2:	bd10      	pop	{r4, pc}

080024f4 <SignBig>:
 80024f4:	f990 0007 	ldrsb.w	r0, [r0, #7]
 80024f8:	1e43      	subs	r3, r0, #1
 80024fa:	4258      	negs	r0, r3
 80024fc:	4158      	adcs	r0, r3
 80024fe:	4770      	bx	lr

08002500 <EvenBig>:
 8002500:	6803      	ldr	r3, [r0, #0]
 8002502:	6818      	ldr	r0, [r3, #0]
 8002504:	f000 0001 	and.w	r0, r0, #1
 8002508:	f080 0001 	eor.w	r0, r0, #1
 800250c:	4770      	bx	lr

0800250e <CompareBig>:
 800250e:	e92d 41f0 	stmdb	sp!, {r4, r5, r6, r7, r8, lr}
 8002512:	79c2      	ldrb	r2, [r0, #7]
 8002514:	79cb      	ldrb	r3, [r1, #7]
 8002516:	4293      	cmp	r3, r2
 8002518:	b254      	sxtb	r4, r2
 800251a:	d132      	bne.n	8002582 <CompareBig+0x74>
 800251c:	8884      	ldrh	r4, [r0, #4]
 800251e:	888d      	ldrh	r5, [r1, #4]
 8002520:	42ac      	cmp	r4, r5
 8002522:	d820      	bhi.n	8002566 <CompareBig+0x58>
 8002524:	d326      	bcc.n	8002574 <CompareBig+0x66>
 8002526:	6800      	ldr	r0, [r0, #0]
 8002528:	6809      	ldr	r1, [r1, #0]
 800252a:	eb00 0784 	add.w	r7, r0, r4, lsl #2
 800252e:	eb01 0c85 	add.w	ip, r1, r5, lsl #2
 8002532:	2301      	movs	r3, #1
 8002534:	f06f 0603 	mvn.w	r6, #3
 8002538:	435e      	muls	r6, r3
 800253a:	f857 8006 	ldr.w	r8, [r7, r6]
 800253e:	f85c 6006 	ldr.w	r6, [ip, r6]
 8002542:	45b0      	cmp	r8, r6
 8002544:	d104      	bne.n	8002550 <CompareBig+0x42>
 8002546:	42a3      	cmp	r3, r4
 8002548:	d802      	bhi.n	8002550 <CompareBig+0x42>
 800254a:	3301      	adds	r3, #1
 800254c:	42a3      	cmp	r3, r4
 800254e:	d9f1      	bls.n	8002534 <CompareBig+0x26>
 8002550:	1e5e      	subs	r6, r3, #1
 8002552:	42a6      	cmp	r6, r4
 8002554:	d01e      	beq.n	8002594 <CompareBig+0x86>
 8002556:	1ae4      	subs	r4, r4, r3
 8002558:	1aeb      	subs	r3, r5, r3
 800255a:	f850 0024 	ldr.w	r0, [r0, r4, lsl #2]
 800255e:	f851 3023 	ldr.w	r3, [r1, r3, lsl #2]
 8002562:	4298      	cmp	r0, r3
 8002564:	d906      	bls.n	8002574 <CompareBig+0x66>
 8002566:	2a00      	cmp	r2, #0
 8002568:	bf0c      	ite	eq
 800256a:	2002      	moveq	r0, #2
 800256c:	f06f 0001 	mvnne.w	r0, #1
 8002570:	e8bd 81f0 	ldmia.w	sp!, {r4, r5, r6, r7, r8, pc}
 8002574:	2a00      	cmp	r2, #0
 8002576:	bf0c      	ite	eq
 8002578:	f04f 30ff 	moveq.w	r0, #4294967295	; 0xffffffff
 800257c:	2001      	movne	r0, #1
 800257e:	e8bd 81f0 	ldmia.w	sp!, {r4, r5, r6, r7, r8, pc}
 8002582:	2c01      	cmp	r4, #1
 8002584:	d109      	bne.n	800259a <CompareBig+0x8c>
 8002586:	2b00      	cmp	r3, #0
 8002588:	bf0c      	ite	eq
 800258a:	f06f 0002 	mvneq.w	r0, #2
 800258e:	2003      	movne	r0, #3
 8002590:	e8bd 81f0 	ldmia.w	sp!, {r4, r5, r6, r7, r8, pc}
 8002594:	2000      	movs	r0, #0
 8002596:	e8bd 81f0 	ldmia.w	sp!, {r4, r5, r6, r7, r8, pc}
 800259a:	2003      	movs	r0, #3
 800259c:	e8bd 81f0 	ldmia.w	sp!, {r4, r5, r6, r7, r8, pc}

080025a0 <CountBits>:
 80025a0:	b510      	push	{r4, lr}
 80025a2:	4604      	mov	r4, r0
 80025a4:	f7ff ff88 	bl	80024b8 <IsZeroBig>
 80025a8:	b9a0      	cbnz	r0, 80025d4 <CountBits+0x34>
 80025aa:	88a2      	ldrh	r2, [r4, #4]
 80025ac:	6821      	ldr	r1, [r4, #0]
 80025ae:	0153      	lsls	r3, r2, #5
 80025b0:	f102 4280 	add.w	r2, r2, #1073741824	; 0x40000000
 80025b4:	3a01      	subs	r2, #1
 80025b6:	f851 0022 	ldr.w	r0, [r1, r2, lsl #2]
 80025ba:	f1a3 0120 	sub.w	r1, r3, #32
 80025be:	f04f 4200 	mov.w	r2, #2147483648	; 0x80000000
 80025c2:	ea02 0400 	and.w	r4, r2, r0
 80025c6:	4294      	cmp	r4, r2
 80025c8:	d006      	beq.n	80025d8 <CountBits+0x38>
 80025ca:	428b      	cmp	r3, r1
 80025cc:	d004      	beq.n	80025d8 <CountBits+0x38>
 80025ce:	0852      	lsrs	r2, r2, #1
 80025d0:	3b01      	subs	r3, #1
 80025d2:	e7f6      	b.n	80025c2 <CountBits+0x22>
 80025d4:	2001      	movs	r0, #1
 80025d6:	bd10      	pop	{r4, pc}
 80025d8:	4618      	mov	r0, r3
 80025da:	bd10      	pop	{r4, pc}

080025dc <GiveBit>:
 80025dc:	f001 031f 	and.w	r3, r1, #31
 80025e0:	2201      	movs	r2, #1
 80025e2:	fa02 f303 	lsl.w	r3, r2, r3
 80025e6:	0949      	lsrs	r1, r1, #5
 80025e8:	6802      	ldr	r2, [r0, #0]
 80025ea:	f852 0021 	ldr.w	r0, [r2, r1, lsl #2]
 80025ee:	4018      	ands	r0, r3
 80025f0:	1ac3      	subs	r3, r0, r3
 80025f2:	4258      	negs	r0, r3
 80025f4:	4158      	adcs	r0, r3
 80025f6:	4770      	bx	lr

080025f8 <W8_to_Big>:
 80025f8:	b5f8      	push	{r3, r4, r5, r6, r7, lr}
 80025fa:	460c      	mov	r4, r1
 80025fc:	2a00      	cmp	r2, #0
 80025fe:	d053      	beq.n	80026a8 <W8_to_Big+0xb0>
 8002600:	b908      	cbnz	r0, 8002606 <W8_to_Big+0xe>
 8002602:	2900      	cmp	r1, #0
 8002604:	d150      	bne.n	80026a8 <W8_to_Big+0xb0>
 8002606:	1ce7      	adds	r7, r4, #3
 8002608:	7993      	ldrb	r3, [r2, #6]
 800260a:	08bf      	lsrs	r7, r7, #2
 800260c:	42bb      	cmp	r3, r7
 800260e:	d348      	bcc.n	80026a2 <W8_to_Big+0xaa>
 8002610:	2c00      	cmp	r4, #0
 8002612:	d041      	beq.n	8002698 <W8_to_Big+0xa0>
 8002614:	2104      	movs	r1, #4
 8002616:	fb94 f1f1 	sdiv	r1, r4, r1
 800261a:	1906      	adds	r6, r0, r4
 800261c:	2500      	movs	r5, #0
 800261e:	428d      	cmp	r5, r1
 8002620:	6813      	ldr	r3, [r2, #0]
 8002622:	da07      	bge.n	8002634 <W8_to_Big+0x3c>
 8002624:	f856 cd04 	ldr.w	ip, [r6, #-4]!
 8002628:	fa9c fc8c 	rev.w	ip, ip
 800262c:	f843 c025 	str.w	ip, [r3, r5, lsl #2]
 8002630:	3501      	adds	r5, #1
 8002632:	e7f4      	b.n	800261e <W8_to_Big+0x26>
 8002634:	ea21 75e1 	bic.w	r5, r1, r1, asr #31
 8002638:	00ae      	lsls	r6, r5, #2
 800263a:	f892 c006 	ldrb.w	ip, [r2, #6]
 800263e:	4565      	cmp	r5, ip
 8002640:	da06      	bge.n	8002650 <W8_to_Big+0x58>
 8002642:	f04f 0c00 	mov.w	ip, #0
 8002646:	f843 c006 	str.w	ip, [r3, r6]
 800264a:	3501      	adds	r5, #1
 800264c:	3604      	adds	r6, #4
 800264e:	e7f4      	b.n	800263a <W8_to_Big+0x42>
 8002650:	f014 0403 	ands.w	r4, r4, #3
 8002654:	d101      	bne.n	800265a <W8_to_Big+0x62>
 8002656:	8097      	strh	r7, [r2, #4]
 8002658:	e013      	b.n	8002682 <W8_to_Big+0x8a>
 800265a:	7806      	ldrb	r6, [r0, #0]
 800265c:	f843 6021 	str.w	r6, [r3, r1, lsl #2]
 8002660:	eb03 0581 	add.w	r5, r3, r1, lsl #2
 8002664:	2101      	movs	r1, #1
 8002666:	42a1      	cmp	r1, r4
 8002668:	daf5      	bge.n	8002656 <W8_to_Big+0x5e>
 800266a:	f810 c001 	ldrb.w	ip, [r0, r1]
 800266e:	682e      	ldr	r6, [r5, #0]
 8002670:	ea4c 2606 	orr.w	r6, ip, r6, lsl #8
 8002674:	602e      	str	r6, [r5, #0]
 8002676:	3101      	adds	r1, #1
 8002678:	e7f5      	b.n	8002666 <W8_to_Big+0x6e>
 800267a:	2901      	cmp	r1, #1
 800267c:	d009      	beq.n	8002692 <W8_to_Big+0x9a>
 800267e:	3901      	subs	r1, #1
 8002680:	8091      	strh	r1, [r2, #4]
 8002682:	8891      	ldrh	r1, [r2, #4]
 8002684:	f101 4080 	add.w	r0, r1, #1073741824	; 0x40000000
 8002688:	3801      	subs	r0, #1
 800268a:	f853 0020 	ldr.w	r0, [r3, r0, lsl #2]
 800268e:	2800      	cmp	r0, #0
 8002690:	d0f3      	beq.n	800267a <W8_to_Big+0x82>
 8002692:	2000      	movs	r0, #0
 8002694:	71d0      	strb	r0, [r2, #7]
 8002696:	bdf8      	pop	{r3, r4, r5, r6, r7, pc}
 8002698:	4610      	mov	r0, r2
 800269a:	f7ff ff19 	bl	80024d0 <SetZeroBig>
 800269e:	4620      	mov	r0, r4
 80026a0:	bdf8      	pop	{r3, r4, r5, r6, r7, pc}
 80026a2:	f241 40b5 	movw	r0, #5301	; 0x14b5
 80026a6:	bdf8      	pop	{r3, r4, r5, r6, r7, pc}
 80026a8:	f241 40b8 	movw	r0, #5304	; 0x14b8
 80026ac:	bdf8      	pop	{r3, r4, r5, r6, r7, pc}

080026ae <FastMul2>:
 80026ae:	b570      	push	{r4, r5, r6, lr}
 80026b0:	4604      	mov	r4, r0
 80026b2:	f7ff ff01 	bl	80024b8 <IsZeroBig>
 80026b6:	b108      	cbz	r0, 80026bc <FastMul2+0xe>
 80026b8:	2000      	movs	r0, #0
 80026ba:	bd70      	pop	{r4, r5, r6, pc}
 80026bc:	88a1      	ldrh	r1, [r4, #4]
 80026be:	4608      	mov	r0, r1
 80026c0:	008a      	lsls	r2, r1, #2
 80026c2:	6823      	ldr	r3, [r4, #0]
 80026c4:	b150      	cbz	r0, 80026dc <FastMul2+0x2e>
 80026c6:	189d      	adds	r5, r3, r2
 80026c8:	3801      	subs	r0, #1
 80026ca:	f855 6c04 	ldr.w	r6, [r5, #-4]
 80026ce:	589d      	ldr	r5, [r3, r2]
 80026d0:	006d      	lsls	r5, r5, #1
 80026d2:	ea45 75d6 	orr.w	r5, r5, r6, lsr #31
 80026d6:	509d      	str	r5, [r3, r2]
 80026d8:	3a04      	subs	r2, #4
 80026da:	e7f2      	b.n	80026c2 <FastMul2+0x14>
 80026dc:	681a      	ldr	r2, [r3, #0]
 80026de:	0052      	lsls	r2, r2, #1
 80026e0:	601a      	str	r2, [r3, #0]
 80026e2:	f853 3021 	ldr.w	r3, [r3, r1, lsl #2]
 80026e6:	2b01      	cmp	r3, #1
 80026e8:	d1e6      	bne.n	80026b8 <FastMul2+0xa>
 80026ea:	3101      	adds	r1, #1
 80026ec:	b289      	uxth	r1, r1
 80026ee:	79a2      	ldrb	r2, [r4, #6]
 80026f0:	80a1      	strh	r1, [r4, #4]
 80026f2:	f241 43b5 	movw	r3, #5301	; 0x14b5
 80026f6:	3101      	adds	r1, #1
 80026f8:	4291      	cmp	r1, r2
 80026fa:	bf8c      	ite	hi
 80026fc:	4618      	movhi	r0, r3
 80026fe:	2000      	movls	r0, #0
 8002700:	bd70      	pop	{r4, r5, r6, pc}

08002702 <FastDiv2>:
 8002702:	b5f8      	push	{r3, r4, r5, r6, r7, lr}
 8002704:	4604      	mov	r4, r0
 8002706:	f7ff fed7 	bl	80024b8 <IsZeroBig>
 800270a:	b9c8      	cbnz	r0, 8002740 <FastDiv2+0x3e>
 800270c:	88a5      	ldrh	r5, [r4, #4]
 800270e:	4601      	mov	r1, r0
 8002710:	1e6a      	subs	r2, r5, #1
 8002712:	4291      	cmp	r1, r2
 8002714:	6823      	ldr	r3, [r4, #0]
 8002716:	d209      	bcs.n	800272c <FastDiv2+0x2a>
 8002718:	0088      	lsls	r0, r1, #2
 800271a:	181e      	adds	r6, r3, r0
 800271c:	3101      	adds	r1, #1
 800271e:	6877      	ldr	r7, [r6, #4]
 8002720:	581e      	ldr	r6, [r3, r0]
 8002722:	0876      	lsrs	r6, r6, #1
 8002724:	ea46 76c7 	orr.w	r6, r6, r7, lsl #31
 8002728:	501e      	str	r6, [r3, r0]
 800272a:	e7f2      	b.n	8002712 <FastDiv2+0x10>
 800272c:	f853 1022 	ldr.w	r1, [r3, r2, lsl #2]
 8002730:	2d01      	cmp	r5, #1
 8002732:	ea4f 0151 	mov.w	r1, r1, lsr #1
 8002736:	f843 1022 	str.w	r1, [r3, r2, lsl #2]
 800273a:	d901      	bls.n	8002740 <FastDiv2+0x3e>
 800273c:	b901      	cbnz	r1, 8002740 <FastDiv2+0x3e>
 800273e:	80a2      	strh	r2, [r4, #4]
 8002740:	bdf8      	pop	{r3, r4, r5, r6, r7, pc}

08002742 <FastMulInnerBase>:
 8002742:	b5f8      	push	{r3, r4, r5, r6, r7, lr}
 8002744:	8882      	ldrh	r2, [r0, #4]
 8002746:	7983      	ldrb	r3, [r0, #6]
 8002748:	440a      	add	r2, r1
 800274a:	429a      	cmp	r2, r3
 800274c:	4605      	mov	r5, r0
 800274e:	460c      	mov	r4, r1
 8002750:	dc23      	bgt.n	800279a <FastMulInnerBase+0x58>
 8002752:	f7ff feb1 	bl	80024b8 <IsZeroBig>
 8002756:	bb18      	cbnz	r0, 80027a0 <FastMulInnerBase+0x5e>
 8002758:	b31c      	cbz	r4, 80027a2 <FastMulInnerBase+0x60>
 800275a:	88ae      	ldrh	r6, [r5, #4]
 800275c:	f106 4180 	add.w	r1, r6, #1073741824	; 0x40000000
 8002760:	3901      	subs	r1, #1
 8002762:	4421      	add	r1, r4
 8002764:	f06f 0c03 	mvn.w	ip, #3
 8002768:	1e73      	subs	r3, r6, #1
 800276a:	0089      	lsls	r1, r1, #2
 800276c:	fb0c fc04 	mul.w	ip, ip, r4
 8002770:	682a      	ldr	r2, [r5, #0]
 8002772:	b133      	cbz	r3, 8002782 <FastMulInnerBase+0x40>
 8002774:	1857      	adds	r7, r2, r1
 8002776:	3b01      	subs	r3, #1
 8002778:	f857 700c 	ldr.w	r7, [r7, ip]
 800277c:	5057      	str	r7, [r2, r1]
 800277e:	3904      	subs	r1, #4
 8002780:	e7f6      	b.n	8002770 <FastMulInnerBase+0x2e>
 8002782:	6811      	ldr	r1, [r2, #0]
 8002784:	f842 1024 	str.w	r1, [r2, r4, lsl #2]
 8002788:	2100      	movs	r1, #0
 800278a:	f842 1023 	str.w	r1, [r2, r3, lsl #2]
 800278e:	3301      	adds	r3, #1
 8002790:	42a3      	cmp	r3, r4
 8002792:	d3f9      	bcc.n	8002788 <FastMulInnerBase+0x46>
 8002794:	4434      	add	r4, r6
 8002796:	80ac      	strh	r4, [r5, #4]
 8002798:	bdf8      	pop	{r3, r4, r5, r6, r7, pc}
 800279a:	f241 40b5 	movw	r0, #5301	; 0x14b5
 800279e:	bdf8      	pop	{r3, r4, r5, r6, r7, pc}
 80027a0:	2000      	movs	r0, #0
 80027a2:	bdf8      	pop	{r3, r4, r5, r6, r7, pc}

080027a4 <LeftShift>:
 80027a4:	e92d 43f0 	stmdb	sp!, {r4, r5, r6, r7, r8, r9, lr}
 80027a8:	b399      	cbz	r1, 8002812 <LeftShift+0x6e>
 80027aa:	8884      	ldrh	r4, [r0, #4]
 80027ac:	6803      	ldr	r3, [r0, #0]
 80027ae:	f104 4280 	add.w	r2, r4, #1073741824	; 0x40000000
 80027b2:	3a01      	subs	r2, #1
 80027b4:	f1c1 0c20 	rsb	ip, r1, #32
 80027b8:	f853 6022 	ldr.w	r6, [r3, r2, lsl #2]
 80027bc:	ea4f 0882 	mov.w	r8, r2, lsl #2
 80027c0:	fa26 f60c 	lsr.w	r6, r6, ip
 80027c4:	1e62      	subs	r2, r4, #1
 80027c6:	eb03 0584 	add.w	r5, r3, r4, lsl #2
 80027ca:	b162      	cbz	r2, 80027e6 <LeftShift+0x42>
 80027cc:	f855 7c08 	ldr.w	r7, [r5, #-8]
 80027d0:	fa27 f90c 	lsr.w	r9, r7, ip
 80027d4:	f855 7c04 	ldr.w	r7, [r5, #-4]
 80027d8:	408f      	lsls	r7, r1
 80027da:	ea49 0707 	orr.w	r7, r9, r7
 80027de:	f845 7d04 	str.w	r7, [r5, #-4]!
 80027e2:	3a01      	subs	r2, #1
 80027e4:	e7f1      	b.n	80027ca <LeftShift+0x26>
 80027e6:	681d      	ldr	r5, [r3, #0]
 80027e8:	fa05 f101 	lsl.w	r1, r5, r1
 80027ec:	6019      	str	r1, [r3, #0]
 80027ee:	b14e      	cbz	r6, 8002804 <LeftShift+0x60>
 80027f0:	7981      	ldrb	r1, [r0, #6]
 80027f2:	3401      	adds	r4, #1
 80027f4:	428c      	cmp	r4, r1
 80027f6:	d808      	bhi.n	800280a <LeftShift+0x66>
 80027f8:	4443      	add	r3, r8
 80027fa:	605e      	str	r6, [r3, #4]
 80027fc:	8084      	strh	r4, [r0, #4]
 80027fe:	4610      	mov	r0, r2
 8002800:	e8bd 83f0 	ldmia.w	sp!, {r4, r5, r6, r7, r8, r9, pc}
 8002804:	4630      	mov	r0, r6
 8002806:	e8bd 83f0 	ldmia.w	sp!, {r4, r5, r6, r7, r8, r9, pc}
 800280a:	f241 40b5 	movw	r0, #5301	; 0x14b5
 800280e:	e8bd 83f0 	ldmia.w	sp!, {r4, r5, r6, r7, r8, r9, pc}
 8002812:	4608      	mov	r0, r1
 8002814:	e8bd 83f0 	ldmia.w	sp!, {r4, r5, r6, r7, r8, r9, pc}

08002818 <RightShift>:
 8002818:	1e4b      	subs	r3, r1, #1
 800281a:	2b1e      	cmp	r3, #30
 800281c:	b5f0      	push	{r4, r5, r6, r7, lr}
 800281e:	d820      	bhi.n	8002862 <RightShift+0x4a>
 8002820:	8884      	ldrh	r4, [r0, #4]
 8002822:	2200      	movs	r2, #0
 8002824:	1e66      	subs	r6, r4, #1
 8002826:	42b2      	cmp	r2, r6
 8002828:	6803      	ldr	r3, [r0, #0]
 800282a:	d20d      	bcs.n	8002848 <RightShift+0x30>
 800282c:	0095      	lsls	r5, r2, #2
 800282e:	195f      	adds	r7, r3, r5
 8002830:	f1c1 0c20 	rsb	ip, r1, #32
 8002834:	687f      	ldr	r7, [r7, #4]
 8002836:	fa07 fc0c 	lsl.w	ip, r7, ip
 800283a:	595f      	ldr	r7, [r3, r5]
 800283c:	40cf      	lsrs	r7, r1
 800283e:	ea4c 0707 	orr.w	r7, ip, r7
 8002842:	3201      	adds	r2, #1
 8002844:	515f      	str	r7, [r3, r5]
 8002846:	e7ee      	b.n	8002826 <RightShift+0xe>
 8002848:	f104 4280 	add.w	r2, r4, #1073741824	; 0x40000000
 800284c:	3a01      	subs	r2, #1
 800284e:	f853 5022 	ldr.w	r5, [r3, r2, lsl #2]
 8002852:	fa25 f101 	lsr.w	r1, r5, r1
 8002856:	f843 1022 	str.w	r1, [r3, r2, lsl #2]
 800285a:	b911      	cbnz	r1, 8002862 <RightShift+0x4a>
 800285c:	2c01      	cmp	r4, #1
 800285e:	bf18      	it	ne
 8002860:	8086      	strhne	r6, [r0, #4]
 8002862:	bdf0      	pop	{r4, r5, r6, r7, pc}

08002864 <MulBigbyUnInt>:
 8002864:	e92d 4df0 	stmdb	sp!, {r4, r5, r6, r7, r8, sl, fp, lr}
 8002868:	4606      	mov	r6, r0
 800286a:	460f      	mov	r7, r1
 800286c:	b1f9      	cbz	r1, 80028ae <MulBigbyUnInt+0x4a>
 800286e:	f8d0 8000 	ldr.w	r8, [r0]
 8002872:	8881      	ldrh	r1, [r0, #4]
 8002874:	46c4      	mov	ip, r8
 8002876:	2000      	movs	r0, #0
 8002878:	2200      	movs	r2, #0
 800287a:	2300      	movs	r3, #0
 800287c:	4288      	cmp	r0, r1
 800287e:	d20b      	bcs.n	8002898 <MulBigbyUnInt+0x34>
 8002880:	f8dc 4000 	ldr.w	r4, [ip]
 8002884:	4692      	mov	sl, r2
 8002886:	469b      	mov	fp, r3
 8002888:	fbe7 ab04 	umlal	sl, fp, r7, r4
 800288c:	f84c ab04 	str.w	sl, [ip], #4
 8002890:	465a      	mov	r2, fp
 8002892:	2300      	movs	r3, #0
 8002894:	3001      	adds	r0, #1
 8002896:	e7f1      	b.n	800287c <MulBigbyUnInt+0x18>
 8002898:	b132      	cbz	r2, 80028a8 <MulBigbyUnInt+0x44>
 800289a:	79b4      	ldrb	r4, [r6, #6]
 800289c:	1c48      	adds	r0, r1, #1
 800289e:	42a0      	cmp	r0, r4
 80028a0:	d808      	bhi.n	80028b4 <MulBigbyUnInt+0x50>
 80028a2:	80b0      	strh	r0, [r6, #4]
 80028a4:	f848 2021 	str.w	r2, [r8, r1, lsl #2]
 80028a8:	2000      	movs	r0, #0
 80028aa:	e8bd 8df0 	ldmia.w	sp!, {r4, r5, r6, r7, r8, sl, fp, pc}
 80028ae:	f7ff fe0f 	bl	80024d0 <SetZeroBig>
 80028b2:	e7f9      	b.n	80028a8 <MulBigbyUnInt+0x44>
 80028b4:	f241 40b5 	movw	r0, #5301	; 0x14b5
 80028b8:	e8bd 8df0 	ldmia.w	sp!, {r4, r5, r6, r7, r8, sl, fp, pc}

080028bc <Sub_Moduli_Big>:
 80028bc:	e92d 43f0 	stmdb	sp!, {r4, r5, r6, r7, r8, r9, lr}
 80028c0:	8883      	ldrh	r3, [r0, #4]
 80028c2:	f8b1 8004 	ldrh.w	r8, [r1, #4]
 80028c6:	7994      	ldrb	r4, [r2, #6]
 80028c8:	4543      	cmp	r3, r8
 80028ca:	bf2c      	ite	cs
 80028cc:	4699      	movcs	r9, r3
 80028ce:	46c1      	movcc	r9, r8
 80028d0:	3401      	adds	r4, #1
 80028d2:	45a1      	cmp	r9, r4
 80028d4:	d857      	bhi.n	8002986 <Sub_Moduli_Big+0xca>
 80028d6:	7984      	ldrb	r4, [r0, #6]
 80028d8:	429c      	cmp	r4, r3
 80028da:	d306      	bcc.n	80028ea <Sub_Moduli_Big+0x2e>
 80028dc:	6804      	ldr	r4, [r0, #0]
 80028de:	2500      	movs	r5, #0
 80028e0:	f844 5023 	str.w	r5, [r4, r3, lsl #2]
 80028e4:	3301      	adds	r3, #1
 80028e6:	b29b      	uxth	r3, r3
 80028e8:	e7f5      	b.n	80028d6 <Sub_Moduli_Big+0x1a>
 80028ea:	4643      	mov	r3, r8
 80028ec:	798c      	ldrb	r4, [r1, #6]
 80028ee:	429c      	cmp	r4, r3
 80028f0:	f04f 0400 	mov.w	r4, #0
 80028f4:	d305      	bcc.n	8002902 <Sub_Moduli_Big+0x46>
 80028f6:	680d      	ldr	r5, [r1, #0]
 80028f8:	f845 4023 	str.w	r4, [r5, r3, lsl #2]
 80028fc:	3301      	adds	r3, #1
 80028fe:	b29b      	uxth	r3, r3
 8002900:	e7f4      	b.n	80028ec <Sub_Moduli_Big+0x30>
 8002902:	46a4      	mov	ip, r4
 8002904:	2500      	movs	r5, #0
 8002906:	2400      	movs	r4, #0
 8002908:	fa1f f38c 	uxth.w	r3, ip
 800290c:	f108 0601 	add.w	r6, r8, #1
 8002910:	42b3      	cmp	r3, r6
 8002912:	f10c 0c01 	add.w	ip, ip, #1
 8002916:	d211      	bcs.n	800293c <Sub_Moduli_Big+0x80>
 8002918:	6806      	ldr	r6, [r0, #0]
 800291a:	f856 7023 	ldr.w	r7, [r6, r3, lsl #2]
 800291e:	680e      	ldr	r6, [r1, #0]
 8002920:	f856 6023 	ldr.w	r6, [r6, r3, lsl #2]
 8002924:	1bbe      	subs	r6, r7, r6
 8002926:	eb67 0707 	sbc.w	r7, r7, r7
 800292a:	1936      	adds	r6, r6, r4
 800292c:	6814      	ldr	r4, [r2, #0]
 800292e:	eb47 0705 	adc.w	r7, r7, r5
 8002932:	f844 6023 	str.w	r6, [r4, r3, lsl #2]
 8002936:	17fd      	asrs	r5, r7, #31
 8002938:	463c      	mov	r4, r7
 800293a:	e7e5      	b.n	8002908 <Sub_Moduli_Big+0x4c>
 800293c:	454b      	cmp	r3, r9
 800293e:	6811      	ldr	r1, [r2, #0]
 8002940:	d20d      	bcs.n	800295e <Sub_Moduli_Big+0xa2>
 8002942:	6806      	ldr	r6, [r0, #0]
 8002944:	f856 c023 	ldr.w	ip, [r6, r3, lsl #2]
 8002948:	eb14 060c 	adds.w	r6, r4, ip
 800294c:	f145 0700 	adc.w	r7, r5, #0
 8002950:	f841 6023 	str.w	r6, [r1, r3, lsl #2]
 8002954:	3301      	adds	r3, #1
 8002956:	463c      	mov	r4, r7
 8002958:	17fd      	asrs	r5, r7, #31
 800295a:	b29b      	uxth	r3, r3
 800295c:	e7ee      	b.n	800293c <Sub_Moduli_Big+0x80>
 800295e:	b134      	cbz	r4, 800296e <Sub_Moduli_Big+0xb2>
 8002960:	f103 4080 	add.w	r0, r3, #1073741824	; 0x40000000
 8002964:	3801      	subs	r0, #1
 8002966:	f06f 0401 	mvn.w	r4, #1
 800296a:	f841 4020 	str.w	r4, [r1, r0, lsl #2]
 800296e:	3b01      	subs	r3, #1
 8002970:	b29b      	uxth	r3, r3
 8002972:	f851 0023 	ldr.w	r0, [r1, r3, lsl #2]
 8002976:	b908      	cbnz	r0, 800297c <Sub_Moduli_Big+0xc0>
 8002978:	2b00      	cmp	r3, #0
 800297a:	d1f8      	bne.n	800296e <Sub_Moduli_Big+0xb2>
 800297c:	3301      	adds	r3, #1
 800297e:	8093      	strh	r3, [r2, #4]
 8002980:	2000      	movs	r0, #0
 8002982:	e8bd 83f0 	ldmia.w	sp!, {r4, r5, r6, r7, r8, r9, pc}
 8002986:	f241 40b5 	movw	r0, #5301	; 0x14b5
 800298a:	e8bd 83f0 	ldmia.w	sp!, {r4, r5, r6, r7, r8, r9, pc}

0800298e <AddBig>:
 800298e:	e92d 43f7 	stmdb	sp!, {r0, r1, r2, r4, r5, r6, r7, r8, r9, lr}
 8002992:	460d      	mov	r5, r1
 8002994:	ae02      	add	r6, sp, #8
 8002996:	461f      	mov	r7, r3
 8002998:	2300      	movs	r3, #0
 800299a:	f846 3d04 	str.w	r3, [r6, #-4]!
 800299e:	7981      	ldrb	r1, [r0, #6]
 80029a0:	79ab      	ldrb	r3, [r5, #6]
 80029a2:	4299      	cmp	r1, r3
 80029a4:	bf38      	it	cc
 80029a6:	4619      	movcc	r1, r3
 80029a8:	4604      	mov	r4, r0
 80029aa:	4690      	mov	r8, r2
 80029ac:	4630      	mov	r0, r6
 80029ae:	3101      	adds	r1, #1
 80029b0:	463a      	mov	r2, r7
 80029b2:	f7ff fcae 	bl	8002312 <StAllocBig>
 80029b6:	2800      	cmp	r0, #0
 80029b8:	d16d      	bne.n	8002a96 <AddBig+0x108>
 80029ba:	4620      	mov	r0, r4
 80029bc:	4629      	mov	r1, r5
 80029be:	f7ff fda6 	bl	800250e <CompareBig>
 80029c2:	3003      	adds	r0, #3
 80029c4:	2806      	cmp	r0, #6
 80029c6:	d857      	bhi.n	8002a78 <AddBig+0xea>
 80029c8:	e8df f000 	tbb	[pc, r0]
 80029cc:	251c2c32 	.word	0x251c2c32
 80029d0:	1c2c      	.short	0x1c2c
 80029d2:	04          	.byte	0x04
 80029d3:	00          	.byte	0x00
 80029d4:	9901      	ldr	r1, [sp, #4]
 80029d6:	4628      	mov	r0, r5
 80029d8:	f7ff fcda 	bl	8002390 <CopyBig>
 80029dc:	9901      	ldr	r1, [sp, #4]
 80029de:	f04f 0900 	mov.w	r9, #0
 80029e2:	f881 9007 	strb.w	r9, [r1, #7]
 80029e6:	4620      	mov	r0, r4
 80029e8:	f7ff fd91 	bl	800250e <CompareBig>
 80029ec:	2800      	cmp	r0, #0
 80029ee:	d040      	beq.n	8002a72 <AddBig+0xe4>
 80029f0:	2802      	cmp	r0, #2
 80029f2:	d004      	beq.n	80029fe <AddBig+0x70>
 80029f4:	3001      	adds	r0, #1
 80029f6:	d13f      	bne.n	8002a78 <AddBig+0xea>
 80029f8:	4628      	mov	r0, r5
 80029fa:	4621      	mov	r1, r4
 80029fc:	e034      	b.n	8002a68 <AddBig+0xda>
 80029fe:	4620      	mov	r0, r4
 8002a00:	4629      	mov	r1, r5
 8002a02:	e028      	b.n	8002a56 <AddBig+0xc8>
 8002a04:	9a01      	ldr	r2, [sp, #4]
 8002a06:	4620      	mov	r0, r4
 8002a08:	4629      	mov	r1, r5
 8002a0a:	f7ff fceb 	bl	80023e4 <Add_Moduli_Big>
 8002a0e:	2200      	movs	r2, #0
 8002a10:	9b01      	ldr	r3, [sp, #4]
 8002a12:	71da      	strb	r2, [r3, #7]
 8002a14:	e030      	b.n	8002a78 <AddBig+0xea>
 8002a16:	9a01      	ldr	r2, [sp, #4]
 8002a18:	4620      	mov	r0, r4
 8002a1a:	4629      	mov	r1, r5
 8002a1c:	f7ff fce2 	bl	80023e4 <Add_Moduli_Big>
 8002a20:	79e2      	ldrb	r2, [r4, #7]
 8002a22:	e7f5      	b.n	8002a10 <AddBig+0x82>
 8002a24:	4620      	mov	r0, r4
 8002a26:	4629      	mov	r1, r5
 8002a28:	9a01      	ldr	r2, [sp, #4]
 8002a2a:	f7ff fcdb 	bl	80023e4 <Add_Moduli_Big>
 8002a2e:	e01e      	b.n	8002a6e <AddBig+0xe0>
 8002a30:	9901      	ldr	r1, [sp, #4]
 8002a32:	4620      	mov	r0, r4
 8002a34:	f7ff fcac 	bl	8002390 <CopyBig>
 8002a38:	9801      	ldr	r0, [sp, #4]
 8002a3a:	f04f 0900 	mov.w	r9, #0
 8002a3e:	f880 9007 	strb.w	r9, [r0, #7]
 8002a42:	4629      	mov	r1, r5
 8002a44:	f7ff fd63 	bl	800250e <CompareBig>
 8002a48:	b198      	cbz	r0, 8002a72 <AddBig+0xe4>
 8002a4a:	2802      	cmp	r0, #2
 8002a4c:	d00a      	beq.n	8002a64 <AddBig+0xd6>
 8002a4e:	3001      	adds	r0, #1
 8002a50:	d112      	bne.n	8002a78 <AddBig+0xea>
 8002a52:	4628      	mov	r0, r5
 8002a54:	4621      	mov	r1, r4
 8002a56:	9a01      	ldr	r2, [sp, #4]
 8002a58:	f7ff ff30 	bl	80028bc <Sub_Moduli_Big>
 8002a5c:	9b01      	ldr	r3, [sp, #4]
 8002a5e:	f883 9007 	strb.w	r9, [r3, #7]
 8002a62:	e009      	b.n	8002a78 <AddBig+0xea>
 8002a64:	4620      	mov	r0, r4
 8002a66:	4629      	mov	r1, r5
 8002a68:	9a01      	ldr	r2, [sp, #4]
 8002a6a:	f7ff ff27 	bl	80028bc <Sub_Moduli_Big>
 8002a6e:	2201      	movs	r2, #1
 8002a70:	e7ce      	b.n	8002a10 <AddBig+0x82>
 8002a72:	9801      	ldr	r0, [sp, #4]
 8002a74:	f7ff fd2c 	bl	80024d0 <SetZeroBig>
 8002a78:	4640      	mov	r0, r8
 8002a7a:	2100      	movs	r1, #0
 8002a7c:	f7ff fc71 	bl	8002362 <InitBig>
 8002a80:	4641      	mov	r1, r8
 8002a82:	9801      	ldr	r0, [sp, #4]
 8002a84:	f7ff fc84 	bl	8002390 <CopyBig>
 8002a88:	4639      	mov	r1, r7
 8002a8a:	4604      	mov	r4, r0
 8002a8c:	4630      	mov	r0, r6
 8002a8e:	f7ff fc5b 	bl	8002348 <StFreeBig>
 8002a92:	4620      	mov	r0, r4
 8002a94:	e001      	b.n	8002a9a <AddBig+0x10c>
 8002a96:	f240 30ed 	movw	r0, #1005	; 0x3ed
 8002a9a:	b003      	add	sp, #12
 8002a9c:	e8bd 83f0 	ldmia.w	sp!, {r4, r5, r6, r7, r8, r9, pc}

08002aa0 <SubBig>:
 8002aa0:	e92d 41f3 	stmdb	sp!, {r0, r1, r4, r5, r6, r7, r8, lr}
 8002aa4:	460c      	mov	r4, r1
 8002aa6:	ae02      	add	r6, sp, #8
 8002aa8:	461f      	mov	r7, r3
 8002aaa:	2300      	movs	r3, #0
 8002aac:	f846 3d04 	str.w	r3, [r6, #-4]!
 8002ab0:	7981      	ldrb	r1, [r0, #6]
 8002ab2:	79a3      	ldrb	r3, [r4, #6]
 8002ab4:	4605      	mov	r5, r0
 8002ab6:	4690      	mov	r8, r2
 8002ab8:	4630      	mov	r0, r6
 8002aba:	4299      	cmp	r1, r3
 8002abc:	bf38      	it	cc
 8002abe:	4619      	movcc	r1, r3
 8002ac0:	463a      	mov	r2, r7
 8002ac2:	f7ff fc26 	bl	8002312 <StAllocBig>
 8002ac6:	2800      	cmp	r0, #0
 8002ac8:	d143      	bne.n	8002b52 <SubBig+0xb2>
 8002aca:	9b01      	ldr	r3, [sp, #4]
 8002acc:	2201      	movs	r2, #1
 8002ace:	809a      	strh	r2, [r3, #4]
 8002ad0:	4628      	mov	r0, r5
 8002ad2:	4621      	mov	r1, r4
 8002ad4:	f7ff fd1b 	bl	800250e <CompareBig>
 8002ad8:	3003      	adds	r0, #3
 8002ada:	2806      	cmp	r0, #6
 8002adc:	d82a      	bhi.n	8002b34 <SubBig+0x94>
 8002ade:	e8df f000 	tbb	[pc, r0]
 8002ae2:	1b21      	.short	0x1b21
 8002ae4:	0a111418 	.word	0x0a111418
 8002ae8:	04          	.byte	0x04
 8002ae9:	00          	.byte	0x00
 8002aea:	4628      	mov	r0, r5
 8002aec:	4621      	mov	r1, r4
 8002aee:	9a01      	ldr	r2, [sp, #4]
 8002af0:	f7ff fc78 	bl	80023e4 <Add_Moduli_Big>
 8002af4:	e004      	b.n	8002b00 <SubBig+0x60>
 8002af6:	4628      	mov	r0, r5
 8002af8:	4621      	mov	r1, r4
 8002afa:	9a01      	ldr	r2, [sp, #4]
 8002afc:	f7ff fede 	bl	80028bc <Sub_Moduli_Big>
 8002b00:	2200      	movs	r2, #0
 8002b02:	e015      	b.n	8002b30 <SubBig+0x90>
 8002b04:	4620      	mov	r0, r4
 8002b06:	4629      	mov	r1, r5
 8002b08:	e7f7      	b.n	8002afa <SubBig+0x5a>
 8002b0a:	9801      	ldr	r0, [sp, #4]
 8002b0c:	f7ff fce0 	bl	80024d0 <SetZeroBig>
 8002b10:	e010      	b.n	8002b34 <SubBig+0x94>
 8002b12:	4620      	mov	r0, r4
 8002b14:	4629      	mov	r1, r5
 8002b16:	e001      	b.n	8002b1c <SubBig+0x7c>
 8002b18:	4628      	mov	r0, r5
 8002b1a:	4621      	mov	r1, r4
 8002b1c:	9a01      	ldr	r2, [sp, #4]
 8002b1e:	f7ff fecd 	bl	80028bc <Sub_Moduli_Big>
 8002b22:	e004      	b.n	8002b2e <SubBig+0x8e>
 8002b24:	4628      	mov	r0, r5
 8002b26:	4621      	mov	r1, r4
 8002b28:	9a01      	ldr	r2, [sp, #4]
 8002b2a:	f7ff fc5b 	bl	80023e4 <Add_Moduli_Big>
 8002b2e:	2201      	movs	r2, #1
 8002b30:	9b01      	ldr	r3, [sp, #4]
 8002b32:	71da      	strb	r2, [r3, #7]
 8002b34:	4640      	mov	r0, r8
 8002b36:	2100      	movs	r1, #0
 8002b38:	f7ff fc13 	bl	8002362 <InitBig>
 8002b3c:	4641      	mov	r1, r8
 8002b3e:	9801      	ldr	r0, [sp, #4]
 8002b40:	f7ff fc26 	bl	8002390 <CopyBig>
 8002b44:	4639      	mov	r1, r7
 8002b46:	4604      	mov	r4, r0
 8002b48:	4630      	mov	r0, r6
 8002b4a:	f7ff fbfd 	bl	8002348 <StFreeBig>
 8002b4e:	4620      	mov	r0, r4
 8002b50:	e001      	b.n	8002b56 <SubBig+0xb6>
 8002b52:	f240 30ed 	movw	r0, #1005	; 0x3ed
 8002b56:	b002      	add	sp, #8
 8002b58:	e8bd 81f0 	ldmia.w	sp!, {r4, r5, r6, r7, r8, pc}

08002b5c <MontyInit>:
 8002b5c:	e92d 47f3 	stmdb	sp!, {r0, r1, r4, r5, r6, r7, r8, r9, sl, lr}
 8002b60:	f101 0904 	add.w	r9, r1, #4
 8002b64:	460c      	mov	r4, r1
 8002b66:	7981      	ldrb	r1, [r0, #6]
 8002b68:	2300      	movs	r3, #0
 8002b6a:	3102      	adds	r1, #2
 8002b6c:	4605      	mov	r5, r0
 8002b6e:	4648      	mov	r0, r9
 8002b70:	4616      	mov	r6, r2
 8002b72:	9301      	str	r3, [sp, #4]
 8002b74:	f7ff fbcd 	bl	8002312 <StAllocBig>
 8002b78:	4601      	mov	r1, r0
 8002b7a:	2800      	cmp	r0, #0
 8002b7c:	f040 8088 	bne.w	8002c90 <MontyInit+0x134>
 8002b80:	6860      	ldr	r0, [r4, #4]
 8002b82:	6025      	str	r5, [r4, #0]
 8002b84:	f7ff fbed 	bl	8002362 <InitBig>
 8002b88:	88aa      	ldrh	r2, [r5, #4]
 8002b8a:	6863      	ldr	r3, [r4, #4]
 8002b8c:	3201      	adds	r2, #1
 8002b8e:	809a      	strh	r2, [r3, #4]
 8002b90:	88a9      	ldrh	r1, [r5, #4]
 8002b92:	681a      	ldr	r2, [r3, #0]
 8002b94:	2301      	movs	r3, #1
 8002b96:	f842 3021 	str.w	r3, [r2, r1, lsl #2]
 8002b9a:	682a      	ldr	r2, [r5, #0]
 8002b9c:	f04f 081f 	mov.w	r8, #31
 8002ba0:	6810      	ldr	r0, [r2, #0]
 8002ba2:	2103      	movs	r1, #3
 8002ba4:	2202      	movs	r2, #2
 8002ba6:	fb00 f703 	mul.w	r7, r0, r3
 8002baa:	400f      	ands	r7, r1
 8002bac:	4297      	cmp	r7, r2
 8002bae:	bf28      	it	cs
 8002bb0:	189b      	addcs	r3, r3, r2
 8002bb2:	0049      	lsls	r1, r1, #1
 8002bb4:	f1b8 0801 	subs.w	r8, r8, #1
 8002bb8:	ea4f 0242 	mov.w	r2, r2, lsl #1
 8002bbc:	f081 0101 	eor.w	r1, r1, #1
 8002bc0:	d1f1      	bne.n	8002ba6 <MontyInit+0x4a>
 8002bc2:	425b      	negs	r3, r3
 8002bc4:	60a3      	str	r3, [r4, #8]
 8002bc6:	79a9      	ldrb	r1, [r5, #6]
 8002bc8:	a801      	add	r0, sp, #4
 8002bca:	3101      	adds	r1, #1
 8002bcc:	4632      	mov	r2, r6
 8002bce:	f7ff fba0 	bl	8002312 <StAllocBig>
 8002bd2:	b108      	cbz	r0, 8002bd8 <MontyInit+0x7c>
 8002bd4:	4648      	mov	r0, r9
 8002bd6:	e058      	b.n	8002c8a <MontyInit+0x12e>
 8002bd8:	9901      	ldr	r1, [sp, #4]
 8002bda:	4628      	mov	r0, r5
 8002bdc:	f7ff fbd8 	bl	8002390 <CopyBig>
 8002be0:	9801      	ldr	r0, [sp, #4]
 8002be2:	f7ff fcdd 	bl	80025a0 <CountBits>
 8002be6:	4240      	negs	r0, r0
 8002be8:	f000 0a1f 	and.w	sl, r0, #31
 8002bec:	4651      	mov	r1, sl
 8002bee:	9801      	ldr	r0, [sp, #4]
 8002bf0:	f7ff fdd8 	bl	80027a4 <LeftShift>
 8002bf4:	6860      	ldr	r0, [r4, #4]
 8002bf6:	9901      	ldr	r1, [sp, #4]
 8002bf8:	4602      	mov	r2, r0
 8002bfa:	4633      	mov	r3, r6
 8002bfc:	f7ff ff50 	bl	8002aa0 <SubBig>
 8002c00:	4607      	mov	r7, r0
 8002c02:	2800      	cmp	r0, #0
 8002c04:	d13c      	bne.n	8002c80 <MontyInit+0x124>
 8002c06:	88ab      	ldrh	r3, [r5, #4]
 8002c08:	4598      	cmp	r8, r3
 8002c0a:	d227      	bcs.n	8002c5c <MontyInit+0x100>
 8002c0c:	6860      	ldr	r0, [r4, #4]
 8002c0e:	f103 4380 	add.w	r3, r3, #1073741824	; 0x40000000
 8002c12:	3b01      	subs	r3, #1
 8002c14:	6802      	ldr	r2, [r0, #0]
 8002c16:	2101      	movs	r1, #1
 8002c18:	f852 9023 	ldr.w	r9, [r2, r3, lsl #2]
 8002c1c:	f7ff fd91 	bl	8002742 <FastMulInnerBase>
 8002c20:	f1b9 0f00 	cmp.w	r9, #0
 8002c24:	d017      	beq.n	8002c56 <MontyInit+0xfa>
 8002c26:	9901      	ldr	r1, [sp, #4]
 8002c28:	4628      	mov	r0, r5
 8002c2a:	f7ff fbb1 	bl	8002390 <CopyBig>
 8002c2e:	4649      	mov	r1, r9
 8002c30:	9801      	ldr	r0, [sp, #4]
 8002c32:	f7ff fe17 	bl	8002864 <MulBigbyUnInt>
 8002c36:	4651      	mov	r1, sl
 8002c38:	9801      	ldr	r0, [sp, #4]
 8002c3a:	f7ff fdb3 	bl	80027a4 <LeftShift>
 8002c3e:	6860      	ldr	r0, [r4, #4]
 8002c40:	9901      	ldr	r1, [sp, #4]
 8002c42:	4602      	mov	r2, r0
 8002c44:	4633      	mov	r3, r6
 8002c46:	f7ff ff2b 	bl	8002aa0 <SubBig>
 8002c4a:	6863      	ldr	r3, [r4, #4]
 8002c4c:	88aa      	ldrh	r2, [r5, #4]
 8002c4e:	681b      	ldr	r3, [r3, #0]
 8002c50:	f853 9022 	ldr.w	r9, [r3, r2, lsl #2]
 8002c54:	e7e4      	b.n	8002c20 <MontyInit+0xc4>
 8002c56:	f108 0801 	add.w	r8, r8, #1
 8002c5a:	e7d4      	b.n	8002c06 <MontyInit+0xaa>
 8002c5c:	a801      	add	r0, sp, #4
 8002c5e:	4631      	mov	r1, r6
 8002c60:	f7ff fb72 	bl	8002348 <StFreeBig>
 8002c64:	6860      	ldr	r0, [r4, #4]
 8002c66:	4629      	mov	r1, r5
 8002c68:	f7ff fc51 	bl	800250e <CompareBig>
 8002c6c:	2800      	cmp	r0, #0
 8002c6e:	dd05      	ble.n	8002c7c <MontyInit+0x120>
 8002c70:	6860      	ldr	r0, [r4, #4]
 8002c72:	4629      	mov	r1, r5
 8002c74:	4602      	mov	r2, r0
 8002c76:	4633      	mov	r3, r6
 8002c78:	f7ff ff12 	bl	8002aa0 <SubBig>
 8002c7c:	60e6      	str	r6, [r4, #12]
 8002c7e:	e009      	b.n	8002c94 <MontyInit+0x138>
 8002c80:	4648      	mov	r0, r9
 8002c82:	4631      	mov	r1, r6
 8002c84:	f7ff fb60 	bl	8002348 <StFreeBig>
 8002c88:	a801      	add	r0, sp, #4
 8002c8a:	4631      	mov	r1, r6
 8002c8c:	f7ff fb5c 	bl	8002348 <StFreeBig>
 8002c90:	f240 37ed 	movw	r7, #1005	; 0x3ed
 8002c94:	4638      	mov	r0, r7
 8002c96:	b002      	add	sp, #8
 8002c98:	e8bd 87f0 	ldmia.w	sp!, {r4, r5, r6, r7, r8, r9, sl, pc}

08002c9c <MontyKillR2>:
 8002c9c:	b508      	push	{r3, lr}
 8002c9e:	4603      	mov	r3, r0
 8002ca0:	3004      	adds	r0, #4
 8002ca2:	68d9      	ldr	r1, [r3, #12]
 8002ca4:	f7ff fb50 	bl	8002348 <StFreeBig>
 8002ca8:	bd08      	pop	{r3, pc}

08002caa <MontyKillAll>:
 8002caa:	2200      	movs	r2, #0
 8002cac:	b508      	push	{r3, lr}
 8002cae:	6002      	str	r2, [r0, #0]
 8002cb0:	6082      	str	r2, [r0, #8]
 8002cb2:	6842      	ldr	r2, [r0, #4]
 8002cb4:	4603      	mov	r3, r0
 8002cb6:	b11a      	cbz	r2, 8002cc0 <MontyKillAll+0x16>
 8002cb8:	3004      	adds	r0, #4
 8002cba:	68d9      	ldr	r1, [r3, #12]
 8002cbc:	f7ff fb44 	bl	8002348 <StFreeBig>
 8002cc0:	bd08      	pop	{r3, pc}

08002cc2 <MontyMul>:
 8002cc2:	e92d 4ff0 	stmdb	sp!, {r4, r5, r6, r7, r8, r9, sl, fp, lr}
 8002cc6:	b09d      	sub	sp, #116	; 0x74
 8002cc8:	461c      	mov	r4, r3
 8002cca:	900c      	str	r0, [sp, #48]	; 0x30
 8002ccc:	a81c      	add	r0, sp, #112	; 0x70
 8002cce:	2300      	movs	r3, #0
 8002cd0:	f840 3d04 	str.w	r3, [r0, #-4]!
 8002cd4:	6823      	ldr	r3, [r4, #0]
 8002cd6:	920d      	str	r2, [sp, #52]	; 0x34
 8002cd8:	4689      	mov	r9, r1
 8002cda:	6819      	ldr	r1, [r3, #0]
 8002cdc:	910e      	str	r1, [sp, #56]	; 0x38
 8002cde:	68a1      	ldr	r1, [r4, #8]
 8002ce0:	9118      	str	r1, [sp, #96]	; 0x60
 8002ce2:	7999      	ldrb	r1, [r3, #6]
 8002ce4:	f8d9 2000 	ldr.w	r2, [r9]
 8002ce8:	9209      	str	r2, [sp, #36]	; 0x24
 8002cea:	3101      	adds	r1, #1
 8002cec:	68e2      	ldr	r2, [r4, #12]
 8002cee:	889f      	ldrh	r7, [r3, #4]
 8002cf0:	f7ff fb0f 	bl	8002312 <StAllocBig>
 8002cf4:	4680      	mov	r8, r0
 8002cf6:	2800      	cmp	r0, #0
 8002cf8:	f040 80c9 	bne.w	8002e8e <MontyMul+0x1cc>
 8002cfc:	981b      	ldr	r0, [sp, #108]	; 0x6c
 8002cfe:	4641      	mov	r1, r8
 8002d00:	f7ff fb2f 	bl	8002362 <InitBig>
 8002d04:	9e1b      	ldr	r6, [sp, #108]	; 0x6c
 8002d06:	f8b9 3004 	ldrh.w	r3, [r9, #4]
 8002d0a:	9a09      	ldr	r2, [sp, #36]	; 0x24
 8002d0c:	6835      	ldr	r5, [r6, #0]
 8002d0e:	eb02 0183 	add.w	r1, r2, r3, lsl #2
 8002d12:	4640      	mov	r0, r8
 8002d14:	18c2      	adds	r2, r0, r3
 8002d16:	42ba      	cmp	r2, r7
 8002d18:	f04f 0200 	mov.w	r2, #0
 8002d1c:	d203      	bcs.n	8002d26 <MontyMul+0x64>
 8002d1e:	f841 2020 	str.w	r2, [r1, r0, lsl #2]
 8002d22:	3001      	adds	r0, #1
 8002d24:	e7f6      	b.n	8002d14 <MontyMul+0x52>
 8002d26:	9b0c      	ldr	r3, [sp, #48]	; 0x30
 8002d28:	f8b3 e004 	ldrh.w	lr, [r3, #4]
 8002d2c:	eb02 010e 	add.w	r1, r2, lr
 8002d30:	42b9      	cmp	r1, r7
 8002d32:	d206      	bcs.n	8002d42 <MontyMul+0x80>
 8002d34:	980c      	ldr	r0, [sp, #48]	; 0x30
 8002d36:	6800      	ldr	r0, [r0, #0]
 8002d38:	2300      	movs	r3, #0
 8002d3a:	f840 3021 	str.w	r3, [r0, r1, lsl #2]
 8002d3e:	3201      	adds	r2, #1
 8002d40:	e7f4      	b.n	8002d2c <MontyMul+0x6a>
 8002d42:	ea4f 0e87 	mov.w	lr, r7, lsl #2
 8002d46:	f1ae 0304 	sub.w	r3, lr, #4
 8002d4a:	18eb      	adds	r3, r5, r3
 8002d4c:	2100      	movs	r1, #0
 8002d4e:	eb05 0c0e 	add.w	ip, r5, lr
 8002d52:	9319      	str	r3, [sp, #100]	; 0x64
 8002d54:	9100      	str	r1, [sp, #0]
 8002d56:	9800      	ldr	r0, [sp, #0]
 8002d58:	42b8      	cmp	r0, r7
 8002d5a:	d270      	bcs.n	8002e3e <MontyMul+0x17c>
 8002d5c:	9a0c      	ldr	r2, [sp, #48]	; 0x30
 8002d5e:	f8dd 8000 	ldr.w	r8, [sp]
 8002d62:	6813      	ldr	r3, [r2, #0]
 8002d64:	9809      	ldr	r0, [sp, #36]	; 0x24
 8002d66:	f853 3028 	ldr.w	r3, [r3, r8, lsl #2]
 8002d6a:	9308      	str	r3, [sp, #32]
 8002d6c:	682a      	ldr	r2, [r5, #0]
 8002d6e:	6803      	ldr	r3, [r0, #0]
 8002d70:	9908      	ldr	r1, [sp, #32]
 8002d72:	980e      	ldr	r0, [sp, #56]	; 0x38
 8002d74:	4692      	mov	sl, r2
 8002d76:	f04f 0b00 	mov.w	fp, #0
 8002d7a:	fbe3 ab01 	umlal	sl, fp, r3, r1
 8002d7e:	9b18      	ldr	r3, [sp, #96]	; 0x60
 8002d80:	fb0a f303 	mul.w	r3, sl, r3
 8002d84:	930f      	str	r3, [sp, #60]	; 0x3c
 8002d86:	990f      	ldr	r1, [sp, #60]	; 0x3c
 8002d88:	6803      	ldr	r3, [r0, #0]
 8002d8a:	46d0      	mov	r8, sl
 8002d8c:	f04f 0900 	mov.w	r9, #0
 8002d90:	fbe3 8901 	umlal	r8, r9, r3, r1
 8002d94:	2100      	movs	r1, #0
 8002d96:	3104      	adds	r1, #4
 8002d98:	4571      	cmp	r1, lr
 8002d9a:	d028      	beq.n	8002dee <MontyMul+0x12c>
 8002d9c:	2200      	movs	r2, #0
 8002d9e:	920b      	str	r2, [sp, #44]	; 0x2c
 8002da0:	9b09      	ldr	r3, [sp, #36]	; 0x24
 8002da2:	586a      	ldr	r2, [r5, r1]
 8002da4:	5858      	ldr	r0, [r3, r1]
 8002da6:	f8cd b028 	str.w	fp, [sp, #40]	; 0x28
 8002daa:	4692      	mov	sl, r2
 8002dac:	9a08      	ldr	r2, [sp, #32]
 8002dae:	f8cd 9048 	str.w	r9, [sp, #72]	; 0x48
 8002db2:	f04f 0b00 	mov.w	fp, #0
 8002db6:	fbe0 ab02 	umlal	sl, fp, r0, r2
 8002dba:	e9dd 230a 	ldrd	r2, r3, [sp, #40]	; 0x28
 8002dbe:	2000      	movs	r0, #0
 8002dc0:	eb1a 0a02 	adds.w	sl, sl, r2
 8002dc4:	eb4b 0b03 	adc.w	fp, fp, r3
 8002dc8:	9013      	str	r0, [sp, #76]	; 0x4c
 8002dca:	9b0e      	ldr	r3, [sp, #56]	; 0x38
 8002dcc:	9a0f      	ldr	r2, [sp, #60]	; 0x3c
 8002dce:	585b      	ldr	r3, [r3, r1]
 8002dd0:	9301      	str	r3, [sp, #4]
 8002dd2:	e9dd 8912 	ldrd	r8, r9, [sp, #72]	; 0x48
 8002dd6:	fbe3 8902 	umlal	r8, r9, r3, r2
 8002dda:	186b      	adds	r3, r5, r1
 8002ddc:	e9cd 8902 	strd	r8, r9, [sp, #8]
 8002de0:	eb18 080a 	adds.w	r8, r8, sl
 8002de4:	f149 0900 	adc.w	r9, r9, #0
 8002de8:	f843 8c04 	str.w	r8, [r3, #-4]
 8002dec:	e7d3      	b.n	8002d96 <MontyMul+0xd4>
 8002dee:	2300      	movs	r3, #0
 8002df0:	9307      	str	r3, [sp, #28]
 8002df2:	f8cd b018 	str.w	fp, [sp, #24]
 8002df6:	e9dd ab06 	ldrd	sl, fp, [sp, #24]
 8002dfa:	f8dc 3000 	ldr.w	r3, [ip]
 8002dfe:	f8cd 9040 	str.w	r9, [sp, #64]	; 0x40
 8002e02:	2000      	movs	r0, #0
 8002e04:	9011      	str	r0, [sp, #68]	; 0x44
 8002e06:	eb1a 0a03 	adds.w	sl, sl, r3
 8002e0a:	e9dd 2310 	ldrd	r2, r3, [sp, #64]	; 0x40
 8002e0e:	f14b 0b00 	adc.w	fp, fp, #0
 8002e12:	eb12 020a 	adds.w	r2, r2, sl
 8002e16:	f143 0300 	adc.w	r3, r3, #0
 8002e1a:	9314      	str	r3, [sp, #80]	; 0x50
 8002e1c:	f8dd 9000 	ldr.w	r9, [sp]
 8002e20:	9b14      	ldr	r3, [sp, #80]	; 0x50
 8002e22:	9919      	ldr	r1, [sp, #100]	; 0x64
 8002e24:	9015      	str	r0, [sp, #84]	; 0x54
 8002e26:	445b      	add	r3, fp
 8002e28:	f109 0901 	add.w	r9, r9, #1
 8002e2c:	600a      	str	r2, [r1, #0]
 8002e2e:	f8cd b058 	str.w	fp, [sp, #88]	; 0x58
 8002e32:	9017      	str	r0, [sp, #92]	; 0x5c
 8002e34:	f8cc 3000 	str.w	r3, [ip]
 8002e38:	f8cd 9000 	str.w	r9, [sp]
 8002e3c:	e78b      	b.n	8002d56 <MontyMul+0x94>
 8002e3e:	1c7b      	adds	r3, r7, #1
 8002e40:	80b3      	strh	r3, [r6, #4]
 8002e42:	88b2      	ldrh	r2, [r6, #4]
 8002e44:	2a01      	cmp	r2, #1
 8002e46:	d908      	bls.n	8002e5a <MontyMul+0x198>
 8002e48:	f102 4380 	add.w	r3, r2, #1073741824	; 0x40000000
 8002e4c:	3b01      	subs	r3, #1
 8002e4e:	f855 3023 	ldr.w	r3, [r5, r3, lsl #2]
 8002e52:	b913      	cbnz	r3, 8002e5a <MontyMul+0x198>
 8002e54:	3a01      	subs	r2, #1
 8002e56:	80b2      	strh	r2, [r6, #4]
 8002e58:	e7f3      	b.n	8002e42 <MontyMul+0x180>
 8002e5a:	4630      	mov	r0, r6
 8002e5c:	6821      	ldr	r1, [r4, #0]
 8002e5e:	f7ff fb56 	bl	800250e <CompareBig>
 8002e62:	2800      	cmp	r0, #0
 8002e64:	981b      	ldr	r0, [sp, #108]	; 0x6c
 8002e66:	db08      	blt.n	8002e7a <MontyMul+0x1b8>
 8002e68:	6821      	ldr	r1, [r4, #0]
 8002e6a:	9a0d      	ldr	r2, [sp, #52]	; 0x34
 8002e6c:	f7ff fd26 	bl	80028bc <Sub_Moduli_Big>
 8002e70:	990d      	ldr	r1, [sp, #52]	; 0x34
 8002e72:	2300      	movs	r3, #0
 8002e74:	4605      	mov	r5, r0
 8002e76:	71cb      	strb	r3, [r1, #7]
 8002e78:	e003      	b.n	8002e82 <MontyMul+0x1c0>
 8002e7a:	990d      	ldr	r1, [sp, #52]	; 0x34
 8002e7c:	f7ff fa88 	bl	8002390 <CopyBig>
 8002e80:	4605      	mov	r5, r0
 8002e82:	a81b      	add	r0, sp, #108	; 0x6c
 8002e84:	68e1      	ldr	r1, [r4, #12]
 8002e86:	f7ff fa5f 	bl	8002348 <StFreeBig>
 8002e8a:	4628      	mov	r0, r5
 8002e8c:	e001      	b.n	8002e92 <MontyMul+0x1d0>
 8002e8e:	f240 30ed 	movw	r0, #1005	; 0x3ed
 8002e92:	b01d      	add	sp, #116	; 0x74
 8002e94:	e8bd 8ff0 	ldmia.w	sp!, {r4, r5, r6, r7, r8, r9, sl, fp, pc}

08002e98 <MontyExit>:
 8002e98:	b5f7      	push	{r0, r1, r2, r4, r5, r6, r7, lr}
 8002e9a:	ac02      	add	r4, sp, #8
 8002e9c:	2300      	movs	r3, #0
 8002e9e:	4606      	mov	r6, r0
 8002ea0:	f844 3d04 	str.w	r3, [r4, #-4]!
 8002ea4:	460f      	mov	r7, r1
 8002ea6:	4615      	mov	r5, r2
 8002ea8:	4620      	mov	r0, r4
 8002eaa:	79b1      	ldrb	r1, [r6, #6]
 8002eac:	68d2      	ldr	r2, [r2, #12]
 8002eae:	f7ff fa30 	bl	8002312 <StAllocBig>
 8002eb2:	b980      	cbnz	r0, 8002ed6 <MontyExit+0x3e>
 8002eb4:	9801      	ldr	r0, [sp, #4]
 8002eb6:	2101      	movs	r1, #1
 8002eb8:	f7ff fa53 	bl	8002362 <InitBig>
 8002ebc:	4630      	mov	r0, r6
 8002ebe:	9901      	ldr	r1, [sp, #4]
 8002ec0:	463a      	mov	r2, r7
 8002ec2:	462b      	mov	r3, r5
 8002ec4:	f7ff fefd 	bl	8002cc2 <MontyMul>
 8002ec8:	68e9      	ldr	r1, [r5, #12]
 8002eca:	4606      	mov	r6, r0
 8002ecc:	4620      	mov	r0, r4
 8002ece:	f7ff fa3b 	bl	8002348 <StFreeBig>
 8002ed2:	4630      	mov	r0, r6
 8002ed4:	e001      	b.n	8002eda <MontyExit+0x42>
 8002ed6:	f240 30ed 	movw	r0, #1005	; 0x3ed
 8002eda:	b003      	add	sp, #12
 8002edc:	bdf0      	pop	{r4, r5, r6, r7, pc}

08002ede <ModularAddBig>:
 8002ede:	b570      	push	{r4, r5, r6, lr}
 8002ee0:	9d04      	ldr	r5, [sp, #16]
 8002ee2:	461e      	mov	r6, r3
 8002ee4:	462b      	mov	r3, r5
 8002ee6:	4614      	mov	r4, r2
 8002ee8:	f7ff fd51 	bl	800298e <AddBig>
 8002eec:	b120      	cbz	r0, 8002ef8 <ModularAddBig+0x1a>
 8002eee:	79a3      	ldrb	r3, [r4, #6]
 8002ef0:	88a2      	ldrh	r2, [r4, #4]
 8002ef2:	3301      	adds	r3, #1
 8002ef4:	429a      	cmp	r2, r3
 8002ef6:	d113      	bne.n	8002f20 <ModularAddBig+0x42>
 8002ef8:	4620      	mov	r0, r4
 8002efa:	4631      	mov	r1, r6
 8002efc:	f7ff fb07 	bl	800250e <CompareBig>
 8002f00:	2800      	cmp	r0, #0
 8002f02:	db05      	blt.n	8002f10 <ModularAddBig+0x32>
 8002f04:	4620      	mov	r0, r4
 8002f06:	4631      	mov	r1, r6
 8002f08:	4622      	mov	r2, r4
 8002f0a:	462b      	mov	r3, r5
 8002f0c:	f7ff fdc8 	bl	8002aa0 <SubBig>
 8002f10:	88a0      	ldrh	r0, [r4, #4]
 8002f12:	79a2      	ldrb	r2, [r4, #6]
 8002f14:	f241 43b5 	movw	r3, #5301	; 0x14b5
 8002f18:	4290      	cmp	r0, r2
 8002f1a:	bf8c      	ite	hi
 8002f1c:	4618      	movhi	r0, r3
 8002f1e:	2000      	movls	r0, #0
 8002f20:	bd70      	pop	{r4, r5, r6, pc}

08002f22 <ModularSubBig>:
 8002f22:	b5f8      	push	{r3, r4, r5, r6, r7, lr}
 8002f24:	9d06      	ldr	r5, [sp, #24]
 8002f26:	461f      	mov	r7, r3
 8002f28:	462b      	mov	r3, r5
 8002f2a:	4616      	mov	r6, r2
 8002f2c:	f7ff fdb8 	bl	8002aa0 <SubBig>
 8002f30:	4604      	mov	r4, r0
 8002f32:	b950      	cbnz	r0, 8002f4a <ModularSubBig+0x28>
 8002f34:	4630      	mov	r0, r6
 8002f36:	f7ff fadd 	bl	80024f4 <SignBig>
 8002f3a:	b130      	cbz	r0, 8002f4a <ModularSubBig+0x28>
 8002f3c:	4630      	mov	r0, r6
 8002f3e:	4639      	mov	r1, r7
 8002f40:	4632      	mov	r2, r6
 8002f42:	462b      	mov	r3, r5
 8002f44:	f7ff fd23 	bl	800298e <AddBig>
 8002f48:	4604      	mov	r4, r0
 8002f4a:	4620      	mov	r0, r4
 8002f4c:	bdf8      	pop	{r3, r4, r5, r6, r7, pc}

08002f4e <ModularFastMul2>:
 8002f4e:	b570      	push	{r4, r5, r6, lr}
 8002f50:	4604      	mov	r4, r0
 8002f52:	460d      	mov	r5, r1
 8002f54:	4616      	mov	r6, r2
 8002f56:	f7ff fbaa 	bl	80026ae <FastMul2>
 8002f5a:	4620      	mov	r0, r4
 8002f5c:	4629      	mov	r1, r5
 8002f5e:	f7ff fad6 	bl	800250e <CompareBig>
 8002f62:	2800      	cmp	r0, #0
 8002f64:	db06      	blt.n	8002f74 <ModularFastMul2+0x26>
 8002f66:	4620      	mov	r0, r4
 8002f68:	4629      	mov	r1, r5
 8002f6a:	4622      	mov	r2, r4
 8002f6c:	4633      	mov	r3, r6
 8002f6e:	f7ff fd97 	bl	8002aa0 <SubBig>
 8002f72:	e000      	b.n	8002f76 <ModularFastMul2+0x28>
 8002f74:	2000      	movs	r0, #0
 8002f76:	88a1      	ldrh	r1, [r4, #4]
 8002f78:	79a2      	ldrb	r2, [r4, #6]
 8002f7a:	f241 43b5 	movw	r3, #5301	; 0x14b5
 8002f7e:	4291      	cmp	r1, r2
 8002f80:	bf88      	it	hi
 8002f82:	4618      	movhi	r0, r3
 8002f84:	bd70      	pop	{r4, r5, r6, pc}

08002f86 <ModularInvBig>:
 8002f86:	e92d 41ff 	stmdb	sp!, {r0, r1, r2, r3, r4, r5, r6, r7, r8, lr}
 8002f8a:	4680      	mov	r8, r0
 8002f8c:	461d      	mov	r5, r3
 8002f8e:	4610      	mov	r0, r2
 8002f90:	2300      	movs	r3, #0
 8002f92:	460f      	mov	r7, r1
 8002f94:	4616      	mov	r6, r2
 8002f96:	9300      	str	r3, [sp, #0]
 8002f98:	9301      	str	r3, [sp, #4]
 8002f9a:	9302      	str	r3, [sp, #8]
 8002f9c:	9303      	str	r3, [sp, #12]
 8002f9e:	f7ff faaf 	bl	8002500 <EvenBig>
 8002fa2:	2800      	cmp	r0, #0
 8002fa4:	f040 80c6 	bne.w	8003134 <ModularInvBig+0x1ae>
 8002fa8:	4668      	mov	r0, sp
 8002faa:	79b1      	ldrb	r1, [r6, #6]
 8002fac:	462a      	mov	r2, r5
 8002fae:	f7ff f9b0 	bl	8002312 <StAllocBig>
 8002fb2:	4604      	mov	r4, r0
 8002fb4:	2800      	cmp	r0, #0
 8002fb6:	f040 80bf 	bne.w	8003138 <ModularInvBig+0x1b2>
 8002fba:	a801      	add	r0, sp, #4
 8002fbc:	79b1      	ldrb	r1, [r6, #6]
 8002fbe:	462a      	mov	r2, r5
 8002fc0:	f7ff f9a7 	bl	8002312 <StAllocBig>
 8002fc4:	4604      	mov	r4, r0
 8002fc6:	2800      	cmp	r0, #0
 8002fc8:	f040 80af 	bne.w	800312a <ModularInvBig+0x1a4>
 8002fcc:	79b1      	ldrb	r1, [r6, #6]
 8002fce:	a802      	add	r0, sp, #8
 8002fd0:	3101      	adds	r1, #1
 8002fd2:	462a      	mov	r2, r5
 8002fd4:	f7ff f99d 	bl	8002312 <StAllocBig>
 8002fd8:	4604      	mov	r4, r0
 8002fda:	2800      	cmp	r0, #0
 8002fdc:	f040 80a1 	bne.w	8003122 <ModularInvBig+0x19c>
 8002fe0:	79b1      	ldrb	r1, [r6, #6]
 8002fe2:	a803      	add	r0, sp, #12
 8002fe4:	3101      	adds	r1, #1
 8002fe6:	462a      	mov	r2, r5
 8002fe8:	f7ff f993 	bl	8002312 <StAllocBig>
 8002fec:	4604      	mov	r4, r0
 8002fee:	2800      	cmp	r0, #0
 8002ff0:	f040 8093 	bne.w	800311a <ModularInvBig+0x194>
 8002ff4:	4640      	mov	r0, r8
 8002ff6:	9900      	ldr	r1, [sp, #0]
 8002ff8:	f7ff f9ca 	bl	8002390 <CopyBig>
 8002ffc:	4604      	mov	r4, r0
 8002ffe:	2800      	cmp	r0, #0
 8003000:	f040 8087 	bne.w	8003112 <ModularInvBig+0x18c>
 8003004:	4630      	mov	r0, r6
 8003006:	9901      	ldr	r1, [sp, #4]
 8003008:	f7ff f9c2 	bl	8002390 <CopyBig>
 800300c:	4604      	mov	r4, r0
 800300e:	2800      	cmp	r0, #0
 8003010:	d17f      	bne.n	8003112 <ModularInvBig+0x18c>
 8003012:	9802      	ldr	r0, [sp, #8]
 8003014:	2101      	movs	r1, #1
 8003016:	f7ff f9a4 	bl	8002362 <InitBig>
 800301a:	9803      	ldr	r0, [sp, #12]
 800301c:	4621      	mov	r1, r4
 800301e:	f7ff f9a0 	bl	8002362 <InitBig>
 8003022:	9800      	ldr	r0, [sp, #0]
 8003024:	f7ff fa48 	bl	80024b8 <IsZeroBig>
 8003028:	2800      	cmp	r0, #0
 800302a:	d15a      	bne.n	80030e2 <ModularInvBig+0x15c>
 800302c:	9800      	ldr	r0, [sp, #0]
 800302e:	f7ff fa67 	bl	8002500 <EvenBig>
 8003032:	b1e8      	cbz	r0, 8003070 <ModularInvBig+0xea>
 8003034:	9800      	ldr	r0, [sp, #0]
 8003036:	f7ff fb64 	bl	8002702 <FastDiv2>
 800303a:	9802      	ldr	r0, [sp, #8]
 800303c:	f7ff fa60 	bl	8002500 <EvenBig>
 8003040:	b940      	cbnz	r0, 8003054 <ModularInvBig+0xce>
 8003042:	9802      	ldr	r0, [sp, #8]
 8003044:	4631      	mov	r1, r6
 8003046:	4602      	mov	r2, r0
 8003048:	462b      	mov	r3, r5
 800304a:	f7ff fca0 	bl	800298e <AddBig>
 800304e:	4604      	mov	r4, r0
 8003050:	2800      	cmp	r0, #0
 8003052:	d15e      	bne.n	8003112 <ModularInvBig+0x18c>
 8003054:	9802      	ldr	r0, [sp, #8]
 8003056:	f7ff fb54 	bl	8002702 <FastDiv2>
 800305a:	e7e7      	b.n	800302c <ModularInvBig+0xa6>
 800305c:	9801      	ldr	r0, [sp, #4]
 800305e:	f7ff fb50 	bl	8002702 <FastDiv2>
 8003062:	9803      	ldr	r0, [sp, #12]
 8003064:	f7ff fa4c 	bl	8002500 <EvenBig>
 8003068:	b140      	cbz	r0, 800307c <ModularInvBig+0xf6>
 800306a:	9803      	ldr	r0, [sp, #12]
 800306c:	f7ff fb49 	bl	8002702 <FastDiv2>
 8003070:	9801      	ldr	r0, [sp, #4]
 8003072:	f7ff fa45 	bl	8002500 <EvenBig>
 8003076:	2800      	cmp	r0, #0
 8003078:	d1f0      	bne.n	800305c <ModularInvBig+0xd6>
 800307a:	e009      	b.n	8003090 <ModularInvBig+0x10a>
 800307c:	9803      	ldr	r0, [sp, #12]
 800307e:	4631      	mov	r1, r6
 8003080:	4602      	mov	r2, r0
 8003082:	462b      	mov	r3, r5
 8003084:	f7ff fc83 	bl	800298e <AddBig>
 8003088:	4604      	mov	r4, r0
 800308a:	2800      	cmp	r0, #0
 800308c:	d0ed      	beq.n	800306a <ModularInvBig+0xe4>
 800308e:	e040      	b.n	8003112 <ModularInvBig+0x18c>
 8003090:	e89d 0003 	ldmia.w	sp, {r0, r1}
 8003094:	f7ff fa3b 	bl	800250e <CompareBig>
 8003098:	2800      	cmp	r0, #0
 800309a:	db0b      	blt.n	80030b4 <ModularInvBig+0x12e>
 800309c:	e89d 0003 	ldmia.w	sp, {r0, r1}
 80030a0:	462b      	mov	r3, r5
 80030a2:	4602      	mov	r2, r0
 80030a4:	f7ff fcfc 	bl	8002aa0 <SubBig>
 80030a8:	4604      	mov	r4, r0
 80030aa:	2800      	cmp	r0, #0
 80030ac:	d131      	bne.n	8003112 <ModularInvBig+0x18c>
 80030ae:	9802      	ldr	r0, [sp, #8]
 80030b0:	9903      	ldr	r1, [sp, #12]
 80030b2:	e009      	b.n	80030c8 <ModularInvBig+0x142>
 80030b4:	9801      	ldr	r0, [sp, #4]
 80030b6:	9900      	ldr	r1, [sp, #0]
 80030b8:	4602      	mov	r2, r0
 80030ba:	462b      	mov	r3, r5
 80030bc:	f7ff fcf0 	bl	8002aa0 <SubBig>
 80030c0:	4604      	mov	r4, r0
 80030c2:	bb30      	cbnz	r0, 8003112 <ModularInvBig+0x18c>
 80030c4:	9803      	ldr	r0, [sp, #12]
 80030c6:	9902      	ldr	r1, [sp, #8]
 80030c8:	4602      	mov	r2, r0
 80030ca:	462b      	mov	r3, r5
 80030cc:	f7ff fce8 	bl	8002aa0 <SubBig>
 80030d0:	e7a7      	b.n	8003022 <ModularInvBig+0x9c>
 80030d2:	9803      	ldr	r0, [sp, #12]
 80030d4:	4631      	mov	r1, r6
 80030d6:	4602      	mov	r2, r0
 80030d8:	462b      	mov	r3, r5
 80030da:	f7ff fc58 	bl	800298e <AddBig>
 80030de:	4604      	mov	r4, r0
 80030e0:	b9b8      	cbnz	r0, 8003112 <ModularInvBig+0x18c>
 80030e2:	9803      	ldr	r0, [sp, #12]
 80030e4:	f7ff fa06 	bl	80024f4 <SignBig>
 80030e8:	2800      	cmp	r0, #0
 80030ea:	d1f2      	bne.n	80030d2 <ModularInvBig+0x14c>
 80030ec:	e006      	b.n	80030fc <ModularInvBig+0x176>
 80030ee:	4631      	mov	r1, r6
 80030f0:	4602      	mov	r2, r0
 80030f2:	462b      	mov	r3, r5
 80030f4:	f7ff fcd4 	bl	8002aa0 <SubBig>
 80030f8:	4604      	mov	r4, r0
 80030fa:	b950      	cbnz	r0, 8003112 <ModularInvBig+0x18c>
 80030fc:	9803      	ldr	r0, [sp, #12]
 80030fe:	4631      	mov	r1, r6
 8003100:	f7ff fa05 	bl	800250e <CompareBig>
 8003104:	2800      	cmp	r0, #0
 8003106:	9803      	ldr	r0, [sp, #12]
 8003108:	daf1      	bge.n	80030ee <ModularInvBig+0x168>
 800310a:	4639      	mov	r1, r7
 800310c:	f7ff f940 	bl	8002390 <CopyBig>
 8003110:	4604      	mov	r4, r0
 8003112:	a803      	add	r0, sp, #12
 8003114:	4629      	mov	r1, r5
 8003116:	f7ff f917 	bl	8002348 <StFreeBig>
 800311a:	a802      	add	r0, sp, #8
 800311c:	4629      	mov	r1, r5
 800311e:	f7ff f913 	bl	8002348 <StFreeBig>
 8003122:	a801      	add	r0, sp, #4
 8003124:	4629      	mov	r1, r5
 8003126:	f7ff f90f 	bl	8002348 <StFreeBig>
 800312a:	4668      	mov	r0, sp
 800312c:	4629      	mov	r1, r5
 800312e:	f7ff f90b 	bl	8002348 <StFreeBig>
 8003132:	e001      	b.n	8003138 <ModularInvBig+0x1b2>
 8003134:	f241 44b6 	movw	r4, #5302	; 0x14b6
 8003138:	4620      	mov	r0, r4
 800313a:	b004      	add	sp, #16
 800313c:	e8bd 81f0 	ldmia.w	sp!, {r4, r5, r6, r7, r8, pc}

08003140 <ECCpoint2Monty>:
 8003140:	b538      	push	{r3, r4, r5, lr}
 8003142:	7b03      	ldrb	r3, [r0, #12]
 8003144:	079b      	lsls	r3, r3, #30
 8003146:	4604      	mov	r4, r0
 8003148:	460d      	mov	r5, r1
 800314a:	d417      	bmi.n	800317c <ECCpoint2Monty+0x3c>
 800314c:	6800      	ldr	r0, [r0, #0]
 800314e:	6849      	ldr	r1, [r1, #4]
 8003150:	4602      	mov	r2, r0
 8003152:	462b      	mov	r3, r5
 8003154:	f7ff fdb5 	bl	8002cc2 <MontyMul>
 8003158:	b988      	cbnz	r0, 800317e <ECCpoint2Monty+0x3e>
 800315a:	6860      	ldr	r0, [r4, #4]
 800315c:	6869      	ldr	r1, [r5, #4]
 800315e:	462b      	mov	r3, r5
 8003160:	4602      	mov	r2, r0
 8003162:	f7ff fdae 	bl	8002cc2 <MontyMul>
 8003166:	68a0      	ldr	r0, [r4, #8]
 8003168:	6869      	ldr	r1, [r5, #4]
 800316a:	462b      	mov	r3, r5
 800316c:	4602      	mov	r2, r0
 800316e:	f7ff fda8 	bl	8002cc2 <MontyMul>
 8003172:	7b23      	ldrb	r3, [r4, #12]
 8003174:	f043 0304 	orr.w	r3, r3, #4
 8003178:	7323      	strb	r3, [r4, #12]
 800317a:	bd38      	pop	{r3, r4, r5, pc}
 800317c:	2000      	movs	r0, #0
 800317e:	bd38      	pop	{r3, r4, r5, pc}

08003180 <ECCpointFromMonty>:
 8003180:	b538      	push	{r3, r4, r5, lr}
 8003182:	7b03      	ldrb	r3, [r0, #12]
 8003184:	f003 0306 	and.w	r3, r3, #6
 8003188:	2b04      	cmp	r3, #4
 800318a:	4604      	mov	r4, r0
 800318c:	460d      	mov	r5, r1
 800318e:	d114      	bne.n	80031ba <ECCpointFromMonty+0x3a>
 8003190:	6800      	ldr	r0, [r0, #0]
 8003192:	462a      	mov	r2, r5
 8003194:	4601      	mov	r1, r0
 8003196:	f7ff fe7f 	bl	8002e98 <MontyExit>
 800319a:	b978      	cbnz	r0, 80031bc <ECCpointFromMonty+0x3c>
 800319c:	6860      	ldr	r0, [r4, #4]
 800319e:	462a      	mov	r2, r5
 80031a0:	4601      	mov	r1, r0
 80031a2:	f7ff fe79 	bl	8002e98 <MontyExit>
 80031a6:	68a0      	ldr	r0, [r4, #8]
 80031a8:	462a      	mov	r2, r5
 80031aa:	4601      	mov	r1, r0
 80031ac:	f7ff fe74 	bl	8002e98 <MontyExit>
 80031b0:	7b23      	ldrb	r3, [r4, #12]
 80031b2:	f023 0304 	bic.w	r3, r3, #4
 80031b6:	7323      	strb	r3, [r4, #12]
 80031b8:	bd38      	pop	{r3, r4, r5, pc}
 80031ba:	2000      	movs	r0, #0
 80031bc:	bd38      	pop	{r3, r4, r5, pc}

080031be <MontyJacProjDoublePoint>:
 80031be:	e92d 43f0 	stmdb	sp!, {r4, r5, r6, r7, r8, r9, lr}
 80031c2:	b085      	sub	sp, #20
 80031c4:	461c      	mov	r4, r3
 80031c6:	f10d 0810 	add.w	r8, sp, #16
 80031ca:	2300      	movs	r3, #0
 80031cc:	f848 3d04 	str.w	r3, [r8, #-4]!
 80031d0:	9302      	str	r3, [sp, #8]
 80031d2:	6823      	ldr	r3, [r4, #0]
 80031d4:	460e      	mov	r6, r1
 80031d6:	7999      	ldrb	r1, [r3, #6]
 80031d8:	4607      	mov	r7, r0
 80031da:	4691      	mov	r9, r2
 80031dc:	4640      	mov	r0, r8
 80031de:	3102      	adds	r1, #2
 80031e0:	68e2      	ldr	r2, [r4, #12]
 80031e2:	f7ff f896 	bl	8002312 <StAllocBig>
 80031e6:	4605      	mov	r5, r0
 80031e8:	2800      	cmp	r0, #0
 80031ea:	f040 8108 	bne.w	80033fe <MontyJacProjDoublePoint+0x240>
 80031ee:	6823      	ldr	r3, [r4, #0]
 80031f0:	68e2      	ldr	r2, [r4, #12]
 80031f2:	7999      	ldrb	r1, [r3, #6]
 80031f4:	a802      	add	r0, sp, #8
 80031f6:	3102      	adds	r1, #2
 80031f8:	f7ff f88b 	bl	8002312 <StAllocBig>
 80031fc:	4605      	mov	r5, r0
 80031fe:	2800      	cmp	r0, #0
 8003200:	f040 80f9 	bne.w	80033f6 <MontyJacProjDoublePoint+0x238>
 8003204:	9803      	ldr	r0, [sp, #12]
 8003206:	f06f 0102 	mvn.w	r1, #2
 800320a:	f7ff f8aa 	bl	8002362 <InitBig>
 800320e:	7b3b      	ldrb	r3, [r7, #12]
 8003210:	079b      	lsls	r3, r3, #30
 8003212:	d502      	bpl.n	800321a <MontyJacProjDoublePoint+0x5c>
 8003214:	2302      	movs	r3, #2
 8003216:	7333      	strb	r3, [r6, #12]
 8003218:	e0e9      	b.n	80033ee <MontyJacProjDoublePoint+0x230>
 800321a:	68b8      	ldr	r0, [r7, #8]
 800321c:	9a02      	ldr	r2, [sp, #8]
 800321e:	2304      	movs	r3, #4
 8003220:	7333      	strb	r3, [r6, #12]
 8003222:	4601      	mov	r1, r0
 8003224:	4623      	mov	r3, r4
 8003226:	f7ff fd4c 	bl	8002cc2 <MontyMul>
 800322a:	4605      	mov	r5, r0
 800322c:	2800      	cmp	r0, #0
 800322e:	f040 80de 	bne.w	80033ee <MontyJacProjDoublePoint+0x230>
 8003232:	6879      	ldr	r1, [r7, #4]
 8003234:	68b2      	ldr	r2, [r6, #8]
 8003236:	68b8      	ldr	r0, [r7, #8]
 8003238:	4623      	mov	r3, r4
 800323a:	f7ff fd42 	bl	8002cc2 <MontyMul>
 800323e:	68b0      	ldr	r0, [r6, #8]
 8003240:	6821      	ldr	r1, [r4, #0]
 8003242:	68e2      	ldr	r2, [r4, #12]
 8003244:	f7ff fe83 	bl	8002f4e <ModularFastMul2>
 8003248:	4605      	mov	r5, r0
 800324a:	2800      	cmp	r0, #0
 800324c:	f040 80cf 	bne.w	80033ee <MontyJacProjDoublePoint+0x230>
 8003250:	9803      	ldr	r0, [sp, #12]
 8003252:	6821      	ldr	r1, [r4, #0]
 8003254:	68e3      	ldr	r3, [r4, #12]
 8003256:	4602      	mov	r2, r0
 8003258:	f7ff fb99 	bl	800298e <AddBig>
 800325c:	f8d9 3030 	ldr.w	r3, [r9, #48]	; 0x30
 8003260:	9803      	ldr	r0, [sp, #12]
 8003262:	6819      	ldr	r1, [r3, #0]
 8003264:	f7ff f953 	bl	800250e <CompareBig>
 8003268:	2800      	cmp	r0, #0
 800326a:	d137      	bne.n	80032dc <MontyJacProjDoublePoint+0x11e>
 800326c:	68e3      	ldr	r3, [r4, #12]
 800326e:	9300      	str	r3, [sp, #0]
 8003270:	6838      	ldr	r0, [r7, #0]
 8003272:	9902      	ldr	r1, [sp, #8]
 8003274:	9a03      	ldr	r2, [sp, #12]
 8003276:	6823      	ldr	r3, [r4, #0]
 8003278:	f7ff fe53 	bl	8002f22 <ModularSubBig>
 800327c:	4605      	mov	r5, r0
 800327e:	2800      	cmp	r0, #0
 8003280:	f040 80b5 	bne.w	80033ee <MontyJacProjDoublePoint+0x230>
 8003284:	68e3      	ldr	r3, [r4, #12]
 8003286:	9300      	str	r3, [sp, #0]
 8003288:	6838      	ldr	r0, [r7, #0]
 800328a:	9902      	ldr	r1, [sp, #8]
 800328c:	6832      	ldr	r2, [r6, #0]
 800328e:	6823      	ldr	r3, [r4, #0]
 8003290:	f7ff fe25 	bl	8002ede <ModularAddBig>
 8003294:	4605      	mov	r5, r0
 8003296:	2800      	cmp	r0, #0
 8003298:	f040 80a9 	bne.w	80033ee <MontyJacProjDoublePoint+0x230>
 800329c:	6830      	ldr	r0, [r6, #0]
 800329e:	9903      	ldr	r1, [sp, #12]
 80032a0:	9a02      	ldr	r2, [sp, #8]
 80032a2:	4623      	mov	r3, r4
 80032a4:	f7ff fd0d 	bl	8002cc2 <MontyMul>
 80032a8:	4605      	mov	r5, r0
 80032aa:	2800      	cmp	r0, #0
 80032ac:	f040 809f 	bne.w	80033ee <MontyJacProjDoublePoint+0x230>
 80032b0:	9903      	ldr	r1, [sp, #12]
 80032b2:	9802      	ldr	r0, [sp, #8]
 80032b4:	f7ff f86c 	bl	8002390 <CopyBig>
 80032b8:	9803      	ldr	r0, [sp, #12]
 80032ba:	6821      	ldr	r1, [r4, #0]
 80032bc:	68e2      	ldr	r2, [r4, #12]
 80032be:	f7ff fe46 	bl	8002f4e <ModularFastMul2>
 80032c2:	4605      	mov	r5, r0
 80032c4:	2800      	cmp	r0, #0
 80032c6:	f040 8092 	bne.w	80033ee <MontyJacProjDoublePoint+0x230>
 80032ca:	9902      	ldr	r1, [sp, #8]
 80032cc:	68e3      	ldr	r3, [r4, #12]
 80032ce:	9300      	str	r3, [sp, #0]
 80032d0:	9803      	ldr	r0, [sp, #12]
 80032d2:	6823      	ldr	r3, [r4, #0]
 80032d4:	460a      	mov	r2, r1
 80032d6:	f7ff fe02 	bl	8002ede <ModularAddBig>
 80032da:	e034      	b.n	8003346 <MontyJacProjDoublePoint+0x188>
 80032dc:	9802      	ldr	r0, [sp, #8]
 80032de:	4623      	mov	r3, r4
 80032e0:	4601      	mov	r1, r0
 80032e2:	4602      	mov	r2, r0
 80032e4:	f7ff fced 	bl	8002cc2 <MontyMul>
 80032e8:	4605      	mov	r5, r0
 80032ea:	2800      	cmp	r0, #0
 80032ec:	d17f      	bne.n	80033ee <MontyJacProjDoublePoint+0x230>
 80032ee:	f8d9 3030 	ldr.w	r3, [r9, #48]	; 0x30
 80032f2:	6861      	ldr	r1, [r4, #4]
 80032f4:	6818      	ldr	r0, [r3, #0]
 80032f6:	9a03      	ldr	r2, [sp, #12]
 80032f8:	4623      	mov	r3, r4
 80032fa:	f7ff fce2 	bl	8002cc2 <MontyMul>
 80032fe:	9902      	ldr	r1, [sp, #8]
 8003300:	9803      	ldr	r0, [sp, #12]
 8003302:	460a      	mov	r2, r1
 8003304:	4623      	mov	r3, r4
 8003306:	f7ff fcdc 	bl	8002cc2 <MontyMul>
 800330a:	6838      	ldr	r0, [r7, #0]
 800330c:	9a03      	ldr	r2, [sp, #12]
 800330e:	4601      	mov	r1, r0
 8003310:	4623      	mov	r3, r4
 8003312:	f7ff fcd6 	bl	8002cc2 <MontyMul>
 8003316:	9802      	ldr	r0, [sp, #8]
 8003318:	68e3      	ldr	r3, [r4, #12]
 800331a:	9300      	str	r3, [sp, #0]
 800331c:	9903      	ldr	r1, [sp, #12]
 800331e:	6823      	ldr	r3, [r4, #0]
 8003320:	4602      	mov	r2, r0
 8003322:	f7ff fddc 	bl	8002ede <ModularAddBig>
 8003326:	6821      	ldr	r1, [r4, #0]
 8003328:	68e2      	ldr	r2, [r4, #12]
 800332a:	9803      	ldr	r0, [sp, #12]
 800332c:	f7ff fe0f 	bl	8002f4e <ModularFastMul2>
 8003330:	9802      	ldr	r0, [sp, #8]
 8003332:	68e3      	ldr	r3, [r4, #12]
 8003334:	9300      	str	r3, [sp, #0]
 8003336:	9903      	ldr	r1, [sp, #12]
 8003338:	6823      	ldr	r3, [r4, #0]
 800333a:	4602      	mov	r2, r0
 800333c:	f7ff fdcf 	bl	8002ede <ModularAddBig>
 8003340:	4605      	mov	r5, r0
 8003342:	2800      	cmp	r0, #0
 8003344:	d153      	bne.n	80033ee <MontyJacProjDoublePoint+0x230>
 8003346:	6878      	ldr	r0, [r7, #4]
 8003348:	6832      	ldr	r2, [r6, #0]
 800334a:	4601      	mov	r1, r0
 800334c:	4623      	mov	r3, r4
 800334e:	f7ff fcb8 	bl	8002cc2 <MontyMul>
 8003352:	4605      	mov	r5, r0
 8003354:	2800      	cmp	r0, #0
 8003356:	d14a      	bne.n	80033ee <MontyJacProjDoublePoint+0x230>
 8003358:	6821      	ldr	r1, [r4, #0]
 800335a:	68e2      	ldr	r2, [r4, #12]
 800335c:	6830      	ldr	r0, [r6, #0]
 800335e:	f7ff fdf6 	bl	8002f4e <ModularFastMul2>
 8003362:	6830      	ldr	r0, [r6, #0]
 8003364:	9a03      	ldr	r2, [sp, #12]
 8003366:	4623      	mov	r3, r4
 8003368:	4601      	mov	r1, r0
 800336a:	f7ff fcaa 	bl	8002cc2 <MontyMul>
 800336e:	6821      	ldr	r1, [r4, #0]
 8003370:	68e2      	ldr	r2, [r4, #12]
 8003372:	9803      	ldr	r0, [sp, #12]
 8003374:	f7ff fdeb 	bl	8002f4e <ModularFastMul2>
 8003378:	6821      	ldr	r1, [r4, #0]
 800337a:	68e2      	ldr	r2, [r4, #12]
 800337c:	6830      	ldr	r0, [r6, #0]
 800337e:	f7ff fde6 	bl	8002f4e <ModularFastMul2>
 8003382:	6838      	ldr	r0, [r7, #0]
 8003384:	e896 0006 	ldmia.w	r6, {r1, r2}
 8003388:	4623      	mov	r3, r4
 800338a:	f7ff fc9a 	bl	8002cc2 <MontyMul>
 800338e:	4605      	mov	r5, r0
 8003390:	2800      	cmp	r0, #0
 8003392:	d12c      	bne.n	80033ee <MontyJacProjDoublePoint+0x230>
 8003394:	9802      	ldr	r0, [sp, #8]
 8003396:	6832      	ldr	r2, [r6, #0]
 8003398:	4601      	mov	r1, r0
 800339a:	4623      	mov	r3, r4
 800339c:	f7ff fc91 	bl	8002cc2 <MontyMul>
 80033a0:	6830      	ldr	r0, [r6, #0]
 80033a2:	68e3      	ldr	r3, [r4, #12]
 80033a4:	9300      	str	r3, [sp, #0]
 80033a6:	6871      	ldr	r1, [r6, #4]
 80033a8:	6823      	ldr	r3, [r4, #0]
 80033aa:	4602      	mov	r2, r0
 80033ac:	f7ff fdb9 	bl	8002f22 <ModularSubBig>
 80033b0:	6830      	ldr	r0, [r6, #0]
 80033b2:	68e3      	ldr	r3, [r4, #12]
 80033b4:	9300      	str	r3, [sp, #0]
 80033b6:	6871      	ldr	r1, [r6, #4]
 80033b8:	6823      	ldr	r3, [r4, #0]
 80033ba:	4602      	mov	r2, r0
 80033bc:	f7ff fdb1 	bl	8002f22 <ModularSubBig>
 80033c0:	6870      	ldr	r0, [r6, #4]
 80033c2:	68e3      	ldr	r3, [r4, #12]
 80033c4:	9300      	str	r3, [sp, #0]
 80033c6:	6831      	ldr	r1, [r6, #0]
 80033c8:	6823      	ldr	r3, [r4, #0]
 80033ca:	4602      	mov	r2, r0
 80033cc:	f7ff fda9 	bl	8002f22 <ModularSubBig>
 80033d0:	6871      	ldr	r1, [r6, #4]
 80033d2:	9802      	ldr	r0, [sp, #8]
 80033d4:	460a      	mov	r2, r1
 80033d6:	4623      	mov	r3, r4
 80033d8:	f7ff fc73 	bl	8002cc2 <MontyMul>
 80033dc:	6870      	ldr	r0, [r6, #4]
 80033de:	68e3      	ldr	r3, [r4, #12]
 80033e0:	9300      	str	r3, [sp, #0]
 80033e2:	9903      	ldr	r1, [sp, #12]
 80033e4:	6823      	ldr	r3, [r4, #0]
 80033e6:	4602      	mov	r2, r0
 80033e8:	f7ff fd9b 	bl	8002f22 <ModularSubBig>
 80033ec:	4605      	mov	r5, r0
 80033ee:	a802      	add	r0, sp, #8
 80033f0:	68e1      	ldr	r1, [r4, #12]
 80033f2:	f7fe ffa9 	bl	8002348 <StFreeBig>
 80033f6:	4640      	mov	r0, r8
 80033f8:	68e1      	ldr	r1, [r4, #12]
 80033fa:	f7fe ffa5 	bl	8002348 <StFreeBig>
 80033fe:	4628      	mov	r0, r5
 8003400:	b005      	add	sp, #20
 8003402:	e8bd 83f0 	ldmia.w	sp!, {r4, r5, r6, r7, r8, r9, pc}

08003406 <ECCinitEC>:
 8003406:	e92d 41f0 	stmdb	sp!, {r4, r5, r6, r7, r8, lr}
 800340a:	460d      	mov	r5, r1
 800340c:	4604      	mov	r4, r0
 800340e:	2800      	cmp	r0, #0
 8003410:	f000 80d6 	beq.w	80035c0 <ECCinitEC+0x1ba>
 8003414:	2900      	cmp	r1, #0
 8003416:	f000 80d3 	beq.w	80035c0 <ECCinitEC+0x1ba>
 800341a:	6903      	ldr	r3, [r0, #16]
 800341c:	2b00      	cmp	r3, #0
 800341e:	f000 80d3 	beq.w	80035c8 <ECCinitEC+0x1c2>
 8003422:	6941      	ldr	r1, [r0, #20]
 8003424:	1e4b      	subs	r3, r1, #1
 8003426:	2b43      	cmp	r3, #67	; 0x43
 8003428:	f200 80ce 	bhi.w	80035c8 <ECCinitEC+0x1c2>
 800342c:	6803      	ldr	r3, [r0, #0]
 800342e:	2b00      	cmp	r3, #0
 8003430:	f000 80ca 	beq.w	80035c8 <ECCinitEC+0x1c2>
 8003434:	6843      	ldr	r3, [r0, #4]
 8003436:	2b44      	cmp	r3, #68	; 0x44
 8003438:	f200 80c6 	bhi.w	80035c8 <ECCinitEC+0x1c2>
 800343c:	6983      	ldr	r3, [r0, #24]
 800343e:	2b00      	cmp	r3, #0
 8003440:	f000 80c2 	beq.w	80035c8 <ECCinitEC+0x1c2>
 8003444:	69c3      	ldr	r3, [r0, #28]
 8003446:	3b01      	subs	r3, #1
 8003448:	2b43      	cmp	r3, #67	; 0x43
 800344a:	f200 80bd 	bhi.w	80035c8 <ECCinitEC+0x1c2>
 800344e:	6828      	ldr	r0, [r5, #0]
 8003450:	2800      	cmp	r0, #0
 8003452:	f000 80b9 	beq.w	80035c8 <ECCinitEC+0x1c2>
 8003456:	3103      	adds	r1, #3
 8003458:	0889      	lsrs	r1, r1, #2
 800345a:	2318      	movs	r3, #24
 800345c:	88aa      	ldrh	r2, [r5, #4]
 800345e:	434b      	muls	r3, r1
 8003460:	3360      	adds	r3, #96	; 0x60
 8003462:	429a      	cmp	r2, r3
 8003464:	d203      	bcs.n	800346e <ECCinitEC+0x68>
 8003466:	f240 30ed 	movw	r0, #1005	; 0x3ed
 800346a:	e8bd 81f0 	ldmia.w	sp!, {r4, r5, r6, r7, r8, pc}
 800346e:	88eb      	ldrh	r3, [r5, #6]
 8003470:	4418      	add	r0, r3
 8003472:	3318      	adds	r3, #24
 8003474:	6320      	str	r0, [r4, #48]	; 0x30
 8003476:	80eb      	strh	r3, [r5, #6]
 8003478:	2800      	cmp	r0, #0
 800347a:	d0f4      	beq.n	8003466 <ECCinitEC+0x60>
 800347c:	3008      	adds	r0, #8
 800347e:	462a      	mov	r2, r5
 8003480:	f7fe ff47 	bl	8002312 <StAllocBig>
 8003484:	4606      	mov	r6, r0
 8003486:	2800      	cmp	r0, #0
 8003488:	f040 8092 	bne.w	80035b0 <ECCinitEC+0x1aa>
 800348c:	6961      	ldr	r1, [r4, #20]
 800348e:	6b20      	ldr	r0, [r4, #48]	; 0x30
 8003490:	3103      	adds	r1, #3
 8003492:	0889      	lsrs	r1, r1, #2
 8003494:	462a      	mov	r2, r5
 8003496:	f7fe ff3c 	bl	8002312 <StAllocBig>
 800349a:	4606      	mov	r6, r0
 800349c:	2800      	cmp	r0, #0
 800349e:	f040 8082 	bne.w	80035a6 <ECCinitEC+0x1a0>
 80034a2:	6b23      	ldr	r3, [r4, #48]	; 0x30
 80034a4:	e894 0003 	ldmia.w	r4, {r0, r1}
 80034a8:	681a      	ldr	r2, [r3, #0]
 80034aa:	f7ff f8a5 	bl	80025f8 <W8_to_Big>
 80034ae:	6b23      	ldr	r3, [r4, #48]	; 0x30
 80034b0:	6961      	ldr	r1, [r4, #20]
 80034b2:	689a      	ldr	r2, [r3, #8]
 80034b4:	4680      	mov	r8, r0
 80034b6:	6920      	ldr	r0, [r4, #16]
 80034b8:	f7ff f89e 	bl	80025f8 <W8_to_Big>
 80034bc:	69e1      	ldr	r1, [r4, #28]
 80034be:	4607      	mov	r7, r0
 80034c0:	6b20      	ldr	r0, [r4, #48]	; 0x30
 80034c2:	3103      	adds	r1, #3
 80034c4:	300c      	adds	r0, #12
 80034c6:	0889      	lsrs	r1, r1, #2
 80034c8:	462a      	mov	r2, r5
 80034ca:	f7fe ff22 	bl	8002312 <StAllocBig>
 80034ce:	4606      	mov	r6, r0
 80034d0:	2800      	cmp	r0, #0
 80034d2:	d164      	bne.n	800359e <ECCinitEC+0x198>
 80034d4:	6b23      	ldr	r3, [r4, #48]	; 0x30
 80034d6:	69a0      	ldr	r0, [r4, #24]
 80034d8:	68da      	ldr	r2, [r3, #12]
 80034da:	69e1      	ldr	r1, [r4, #28]
 80034dc:	f7ff f88c 	bl	80025f8 <W8_to_Big>
 80034e0:	4447      	add	r7, r8
 80034e2:	4407      	add	r7, r0
 80034e4:	68a3      	ldr	r3, [r4, #8]
 80034e6:	6b20      	ldr	r0, [r4, #48]	; 0x30
 80034e8:	6046      	str	r6, [r0, #4]
 80034ea:	6106      	str	r6, [r0, #16]
 80034ec:	6146      	str	r6, [r0, #20]
 80034ee:	b19b      	cbz	r3, 8003518 <ECCinitEC+0x112>
 80034f0:	68e1      	ldr	r1, [r4, #12]
 80034f2:	1e4b      	subs	r3, r1, #1
 80034f4:	2b42      	cmp	r3, #66	; 0x42
 80034f6:	d80f      	bhi.n	8003518 <ECCinitEC+0x112>
 80034f8:	3103      	adds	r1, #3
 80034fa:	3004      	adds	r0, #4
 80034fc:	0889      	lsrs	r1, r1, #2
 80034fe:	462a      	mov	r2, r5
 8003500:	f7fe ff07 	bl	8002312 <StAllocBig>
 8003504:	4606      	mov	r6, r0
 8003506:	2800      	cmp	r0, #0
 8003508:	d144      	bne.n	8003594 <ECCinitEC+0x18e>
 800350a:	6b23      	ldr	r3, [r4, #48]	; 0x30
 800350c:	68a0      	ldr	r0, [r4, #8]
 800350e:	68e1      	ldr	r1, [r4, #12]
 8003510:	685a      	ldr	r2, [r3, #4]
 8003512:	f7ff f871 	bl	80025f8 <W8_to_Big>
 8003516:	4407      	add	r7, r0
 8003518:	6a23      	ldr	r3, [r4, #32]
 800351a:	b353      	cbz	r3, 8003572 <ECCinitEC+0x16c>
 800351c:	6a61      	ldr	r1, [r4, #36]	; 0x24
 800351e:	1e4b      	subs	r3, r1, #1
 8003520:	2b42      	cmp	r3, #66	; 0x42
 8003522:	d826      	bhi.n	8003572 <ECCinitEC+0x16c>
 8003524:	6aa3      	ldr	r3, [r4, #40]	; 0x28
 8003526:	b323      	cbz	r3, 8003572 <ECCinitEC+0x16c>
 8003528:	6ae3      	ldr	r3, [r4, #44]	; 0x2c
 800352a:	3b01      	subs	r3, #1
 800352c:	2b42      	cmp	r3, #66	; 0x42
 800352e:	d820      	bhi.n	8003572 <ECCinitEC+0x16c>
 8003530:	6b20      	ldr	r0, [r4, #48]	; 0x30
 8003532:	3103      	adds	r1, #3
 8003534:	3010      	adds	r0, #16
 8003536:	0889      	lsrs	r1, r1, #2
 8003538:	462a      	mov	r2, r5
 800353a:	f7fe feea 	bl	8002312 <StAllocBig>
 800353e:	4606      	mov	r6, r0
 8003540:	bb18      	cbnz	r0, 800358a <ECCinitEC+0x184>
 8003542:	6b23      	ldr	r3, [r4, #48]	; 0x30
 8003544:	6a61      	ldr	r1, [r4, #36]	; 0x24
 8003546:	691a      	ldr	r2, [r3, #16]
 8003548:	6a20      	ldr	r0, [r4, #32]
 800354a:	f7ff f855 	bl	80025f8 <W8_to_Big>
 800354e:	6ae1      	ldr	r1, [r4, #44]	; 0x2c
 8003550:	4407      	add	r7, r0
 8003552:	6b20      	ldr	r0, [r4, #48]	; 0x30
 8003554:	3103      	adds	r1, #3
 8003556:	3014      	adds	r0, #20
 8003558:	0889      	lsrs	r1, r1, #2
 800355a:	462a      	mov	r2, r5
 800355c:	f7fe fed9 	bl	8002312 <StAllocBig>
 8003560:	6b23      	ldr	r3, [r4, #48]	; 0x30
 8003562:	4606      	mov	r6, r0
 8003564:	b960      	cbnz	r0, 8003580 <ECCinitEC+0x17a>
 8003566:	6aa0      	ldr	r0, [r4, #40]	; 0x28
 8003568:	6ae1      	ldr	r1, [r4, #44]	; 0x2c
 800356a:	695a      	ldr	r2, [r3, #20]
 800356c:	f7ff f844 	bl	80025f8 <W8_to_Big>
 8003570:	4407      	add	r7, r0
 8003572:	2f00      	cmp	r7, #0
 8003574:	f241 40bf 	movw	r0, #5311	; 0x14bf
 8003578:	bf08      	it	eq
 800357a:	2000      	moveq	r0, #0
 800357c:	e8bd 81f0 	ldmia.w	sp!, {r4, r5, r6, r7, r8, pc}
 8003580:	f103 0010 	add.w	r0, r3, #16
 8003584:	4629      	mov	r1, r5
 8003586:	f7fe fedf 	bl	8002348 <StFreeBig>
 800358a:	6b20      	ldr	r0, [r4, #48]	; 0x30
 800358c:	4629      	mov	r1, r5
 800358e:	3004      	adds	r0, #4
 8003590:	f7fe feda 	bl	8002348 <StFreeBig>
 8003594:	6b20      	ldr	r0, [r4, #48]	; 0x30
 8003596:	4629      	mov	r1, r5
 8003598:	300c      	adds	r0, #12
 800359a:	f7fe fed5 	bl	8002348 <StFreeBig>
 800359e:	6b20      	ldr	r0, [r4, #48]	; 0x30
 80035a0:	4629      	mov	r1, r5
 80035a2:	f7fe fed1 	bl	8002348 <StFreeBig>
 80035a6:	6b20      	ldr	r0, [r4, #48]	; 0x30
 80035a8:	4629      	mov	r1, r5
 80035aa:	3008      	adds	r0, #8
 80035ac:	f7fe fecc 	bl	8002348 <StFreeBig>
 80035b0:	88eb      	ldrh	r3, [r5, #6]
 80035b2:	3b18      	subs	r3, #24
 80035b4:	80eb      	strh	r3, [r5, #6]
 80035b6:	2300      	movs	r3, #0
 80035b8:	6323      	str	r3, [r4, #48]	; 0x30
 80035ba:	4630      	mov	r0, r6
 80035bc:	e8bd 81f0 	ldmia.w	sp!, {r4, r5, r6, r7, r8, pc}
 80035c0:	f241 4054 	movw	r0, #5204	; 0x1454
 80035c4:	e8bd 81f0 	ldmia.w	sp!, {r4, r5, r6, r7, r8, pc}
 80035c8:	f241 4053 	movw	r0, #5203	; 0x1453
 80035cc:	e8bd 81f0 	ldmia.w	sp!, {r4, r5, r6, r7, r8, pc}

080035d0 <ECCfreeEC>:
 80035d0:	b538      	push	{r3, r4, r5, lr}
 80035d2:	460d      	mov	r5, r1
 80035d4:	4604      	mov	r4, r0
 80035d6:	2800      	cmp	r0, #0
 80035d8:	d032      	beq.n	8003640 <ECCfreeEC+0x70>
 80035da:	2900      	cmp	r1, #0
 80035dc:	d030      	beq.n	8003640 <ECCfreeEC+0x70>
 80035de:	6b00      	ldr	r0, [r0, #48]	; 0x30
 80035e0:	2800      	cmp	r0, #0
 80035e2:	d030      	beq.n	8003646 <ECCfreeEC+0x76>
 80035e4:	6803      	ldr	r3, [r0, #0]
 80035e6:	2b00      	cmp	r3, #0
 80035e8:	d02d      	beq.n	8003646 <ECCfreeEC+0x76>
 80035ea:	6883      	ldr	r3, [r0, #8]
 80035ec:	b35b      	cbz	r3, 8003646 <ECCfreeEC+0x76>
 80035ee:	f7fe feab 	bl	8002348 <StFreeBig>
 80035f2:	6b20      	ldr	r0, [r4, #48]	; 0x30
 80035f4:	4629      	mov	r1, r5
 80035f6:	3008      	adds	r0, #8
 80035f8:	f7fe fea6 	bl	8002348 <StFreeBig>
 80035fc:	6b20      	ldr	r0, [r4, #48]	; 0x30
 80035fe:	68c3      	ldr	r3, [r0, #12]
 8003600:	b11b      	cbz	r3, 800360a <ECCfreeEC+0x3a>
 8003602:	300c      	adds	r0, #12
 8003604:	4629      	mov	r1, r5
 8003606:	f7fe fe9f 	bl	8002348 <StFreeBig>
 800360a:	6b20      	ldr	r0, [r4, #48]	; 0x30
 800360c:	6843      	ldr	r3, [r0, #4]
 800360e:	b11b      	cbz	r3, 8003618 <ECCfreeEC+0x48>
 8003610:	3004      	adds	r0, #4
 8003612:	4629      	mov	r1, r5
 8003614:	f7fe fe98 	bl	8002348 <StFreeBig>
 8003618:	6b20      	ldr	r0, [r4, #48]	; 0x30
 800361a:	6903      	ldr	r3, [r0, #16]
 800361c:	b11b      	cbz	r3, 8003626 <ECCfreeEC+0x56>
 800361e:	3010      	adds	r0, #16
 8003620:	4629      	mov	r1, r5
 8003622:	f7fe fe91 	bl	8002348 <StFreeBig>
 8003626:	6b20      	ldr	r0, [r4, #48]	; 0x30
 8003628:	6943      	ldr	r3, [r0, #20]
 800362a:	b11b      	cbz	r3, 8003634 <ECCfreeEC+0x64>
 800362c:	3014      	adds	r0, #20
 800362e:	4629      	mov	r1, r5
 8003630:	f7fe fe8a 	bl	8002348 <StFreeBig>
 8003634:	88eb      	ldrh	r3, [r5, #6]
 8003636:	2000      	movs	r0, #0
 8003638:	3b18      	subs	r3, #24
 800363a:	80eb      	strh	r3, [r5, #6]
 800363c:	6320      	str	r0, [r4, #48]	; 0x30
 800363e:	bd38      	pop	{r3, r4, r5, pc}
 8003640:	f241 4054 	movw	r0, #5204	; 0x1454
 8003644:	bd38      	pop	{r3, r4, r5, pc}
 8003646:	f241 4053 	movw	r0, #5203	; 0x1453
 800364a:	bd38      	pop	{r3, r4, r5, pc}

0800364c <ECCinitPoint>:
 800364c:	e92d 41f0 	stmdb	sp!, {r4, r5, r6, r7, r8, lr}
 8003650:	4605      	mov	r5, r0
 8003652:	4614      	mov	r4, r2
 8003654:	460e      	mov	r6, r1
 8003656:	2900      	cmp	r1, #0
 8003658:	d05c      	beq.n	8003714 <ECCinitPoint+0xc8>
 800365a:	2a00      	cmp	r2, #0
 800365c:	d05a      	beq.n	8003714 <ECCinitPoint+0xc8>
 800365e:	2800      	cmp	r0, #0
 8003660:	d058      	beq.n	8003714 <ECCinitPoint+0xc8>
 8003662:	6b0b      	ldr	r3, [r1, #48]	; 0x30
 8003664:	2b00      	cmp	r3, #0
 8003666:	d04f      	beq.n	8003708 <ECCinitPoint+0xbc>
 8003668:	6810      	ldr	r0, [r2, #0]
 800366a:	2800      	cmp	r0, #0
 800366c:	d04c      	beq.n	8003708 <ECCinitPoint+0xbc>
 800366e:	6899      	ldr	r1, [r3, #8]
 8003670:	2900      	cmp	r1, #0
 8003672:	d049      	beq.n	8003708 <ECCinitPoint+0xbc>
 8003674:	88d3      	ldrh	r3, [r2, #6]
 8003676:	7989      	ldrb	r1, [r1, #6]
 8003678:	8897      	ldrh	r7, [r2, #4]
 800367a:	f103 0c34 	add.w	ip, r3, #52	; 0x34
 800367e:	f04f 080c 	mov.w	r8, #12
 8003682:	fb18 c101 	smlabb	r1, r8, r1, ip
 8003686:	428f      	cmp	r7, r1
 8003688:	d341      	bcc.n	800370e <ECCinitPoint+0xc2>
 800368a:	4418      	add	r0, r3
 800368c:	6028      	str	r0, [r5, #0]
 800368e:	3310      	adds	r3, #16
 8003690:	80d3      	strh	r3, [r2, #6]
 8003692:	6b33      	ldr	r3, [r6, #48]	; 0x30
 8003694:	689b      	ldr	r3, [r3, #8]
 8003696:	7999      	ldrb	r1, [r3, #6]
 8003698:	f7fe fe3b 	bl	8002312 <StAllocBig>
 800369c:	2800      	cmp	r0, #0
 800369e:	d12d      	bne.n	80036fc <ECCinitPoint+0xb0>
 80036a0:	6b33      	ldr	r3, [r6, #48]	; 0x30
 80036a2:	6828      	ldr	r0, [r5, #0]
 80036a4:	689b      	ldr	r3, [r3, #8]
 80036a6:	3004      	adds	r0, #4
 80036a8:	7999      	ldrb	r1, [r3, #6]
 80036aa:	4622      	mov	r2, r4
 80036ac:	f7fe fe31 	bl	8002312 <StAllocBig>
 80036b0:	bb00      	cbnz	r0, 80036f4 <ECCinitPoint+0xa8>
 80036b2:	6b33      	ldr	r3, [r6, #48]	; 0x30
 80036b4:	6828      	ldr	r0, [r5, #0]
 80036b6:	689b      	ldr	r3, [r3, #8]
 80036b8:	3008      	adds	r0, #8
 80036ba:	7999      	ldrb	r1, [r3, #6]
 80036bc:	4622      	mov	r2, r4
 80036be:	f7fe fe28 	bl	8002312 <StAllocBig>
 80036c2:	4606      	mov	r6, r0
 80036c4:	6828      	ldr	r0, [r5, #0]
 80036c6:	b98e      	cbnz	r6, 80036ec <ECCinitPoint+0xa0>
 80036c8:	6800      	ldr	r0, [r0, #0]
 80036ca:	2100      	movs	r1, #0
 80036cc:	f7fe fe49 	bl	8002362 <InitBig>
 80036d0:	682b      	ldr	r3, [r5, #0]
 80036d2:	2100      	movs	r1, #0
 80036d4:	6858      	ldr	r0, [r3, #4]
 80036d6:	f7fe fe44 	bl	8002362 <InitBig>
 80036da:	682b      	ldr	r3, [r5, #0]
 80036dc:	2101      	movs	r1, #1
 80036de:	6898      	ldr	r0, [r3, #8]
 80036e0:	f7fe fe3f 	bl	8002362 <InitBig>
 80036e4:	682b      	ldr	r3, [r5, #0]
 80036e6:	2201      	movs	r2, #1
 80036e8:	731a      	strb	r2, [r3, #12]
 80036ea:	e015      	b.n	8003718 <ECCinitPoint+0xcc>
 80036ec:	3004      	adds	r0, #4
 80036ee:	4621      	mov	r1, r4
 80036f0:	f7fe fe2a 	bl	8002348 <StFreeBig>
 80036f4:	6828      	ldr	r0, [r5, #0]
 80036f6:	4621      	mov	r1, r4
 80036f8:	f7fe fe26 	bl	8002348 <StFreeBig>
 80036fc:	88e3      	ldrh	r3, [r4, #6]
 80036fe:	3b10      	subs	r3, #16
 8003700:	80e3      	strh	r3, [r4, #6]
 8003702:	2300      	movs	r3, #0
 8003704:	602b      	str	r3, [r5, #0]
 8003706:	e002      	b.n	800370e <ECCinitPoint+0xc2>
 8003708:	f241 4653 	movw	r6, #5203	; 0x1453
 800370c:	e004      	b.n	8003718 <ECCinitPoint+0xcc>
 800370e:	f240 36ed 	movw	r6, #1005	; 0x3ed
 8003712:	e001      	b.n	8003718 <ECCinitPoint+0xcc>
 8003714:	f241 4654 	movw	r6, #5204	; 0x1454
 8003718:	4630      	mov	r0, r6
 800371a:	e8bd 81f0 	ldmia.w	sp!, {r4, r5, r6, r7, r8, pc}

0800371e <ECCfreePoint>:
 800371e:	b538      	push	{r3, r4, r5, lr}
 8003720:	460d      	mov	r5, r1
 8003722:	4604      	mov	r4, r0
 8003724:	b1b8      	cbz	r0, 8003756 <ECCfreePoint+0x38>
 8003726:	b1b1      	cbz	r1, 8003756 <ECCfreePoint+0x38>
 8003728:	6800      	ldr	r0, [r0, #0]
 800372a:	b188      	cbz	r0, 8003750 <ECCfreePoint+0x32>
 800372c:	3008      	adds	r0, #8
 800372e:	f7fe fe0b 	bl	8002348 <StFreeBig>
 8003732:	6820      	ldr	r0, [r4, #0]
 8003734:	4629      	mov	r1, r5
 8003736:	3004      	adds	r0, #4
 8003738:	f7fe fe06 	bl	8002348 <StFreeBig>
 800373c:	6820      	ldr	r0, [r4, #0]
 800373e:	4629      	mov	r1, r5
 8003740:	f7fe fe02 	bl	8002348 <StFreeBig>
 8003744:	88eb      	ldrh	r3, [r5, #6]
 8003746:	2000      	movs	r0, #0
 8003748:	3b10      	subs	r3, #16
 800374a:	80eb      	strh	r3, [r5, #6]
 800374c:	6020      	str	r0, [r4, #0]
 800374e:	bd38      	pop	{r3, r4, r5, pc}
 8003750:	f241 4053 	movw	r0, #5203	; 0x1453
 8003754:	bd38      	pop	{r3, r4, r5, pc}
 8003756:	f241 4054 	movw	r0, #5204	; 0x1454
 800375a:	bd38      	pop	{r3, r4, r5, pc}

0800375c <ECCsetPointCoordinate>:
 800375c:	b570      	push	{r4, r5, r6, lr}
 800375e:	460d      	mov	r5, r1
 8003760:	4614      	mov	r4, r2
 8003762:	4619      	mov	r1, r3
 8003764:	b1e0      	cbz	r0, 80037a0 <ECCsetPointCoordinate+0x44>
 8003766:	b1da      	cbz	r2, 80037a0 <ECCsetPointCoordinate+0x44>
 8003768:	2b00      	cmp	r3, #0
 800376a:	db19      	blt.n	80037a0 <ECCsetPointCoordinate+0x44>
 800376c:	6806      	ldr	r6, [r0, #0]
 800376e:	b1be      	cbz	r6, 80037a0 <ECCsetPointCoordinate+0x44>
 8003770:	6842      	ldr	r2, [r0, #4]
 8003772:	b1aa      	cbz	r2, 80037a0 <ECCsetPointCoordinate+0x44>
 8003774:	6883      	ldr	r3, [r0, #8]
 8003776:	b19b      	cbz	r3, 80037a0 <ECCsetPointCoordinate+0x44>
 8003778:	2d01      	cmp	r5, #1
 800377a:	d008      	beq.n	800378e <ECCsetPointCoordinate+0x32>
 800377c:	d304      	bcc.n	8003788 <ECCsetPointCoordinate+0x2c>
 800377e:	2d02      	cmp	r5, #2
 8003780:	d111      	bne.n	80037a6 <ECCsetPointCoordinate+0x4a>
 8003782:	4620      	mov	r0, r4
 8003784:	461a      	mov	r2, r3
 8003786:	e003      	b.n	8003790 <ECCsetPointCoordinate+0x34>
 8003788:	4620      	mov	r0, r4
 800378a:	4632      	mov	r2, r6
 800378c:	e000      	b.n	8003790 <ECCsetPointCoordinate+0x34>
 800378e:	4620      	mov	r0, r4
 8003790:	f7fe ff32 	bl	80025f8 <W8_to_Big>
 8003794:	2800      	cmp	r0, #0
 8003796:	f241 40bf 	movw	r0, #5311	; 0x14bf
 800379a:	bf08      	it	eq
 800379c:	2000      	moveq	r0, #0
 800379e:	bd70      	pop	{r4, r5, r6, pc}
 80037a0:	f241 4054 	movw	r0, #5204	; 0x1454
 80037a4:	bd70      	pop	{r4, r5, r6, pc}
 80037a6:	f241 40bf 	movw	r0, #5311	; 0x14bf
 80037aa:	bd70      	pop	{r4, r5, r6, pc}

080037ac <ECCcopyPoint>:
 80037ac:	b538      	push	{r3, r4, r5, lr}
 80037ae:	460d      	mov	r5, r1
 80037b0:	4604      	mov	r4, r0
 80037b2:	b1f0      	cbz	r0, 80037f2 <ECCcopyPoint+0x46>
 80037b4:	b1e9      	cbz	r1, 80037f2 <ECCcopyPoint+0x46>
 80037b6:	6800      	ldr	r0, [r0, #0]
 80037b8:	b1d8      	cbz	r0, 80037f2 <ECCcopyPoint+0x46>
 80037ba:	6863      	ldr	r3, [r4, #4]
 80037bc:	b1cb      	cbz	r3, 80037f2 <ECCcopyPoint+0x46>
 80037be:	68a3      	ldr	r3, [r4, #8]
 80037c0:	b1bb      	cbz	r3, 80037f2 <ECCcopyPoint+0x46>
 80037c2:	6809      	ldr	r1, [r1, #0]
 80037c4:	b1a9      	cbz	r1, 80037f2 <ECCcopyPoint+0x46>
 80037c6:	686b      	ldr	r3, [r5, #4]
 80037c8:	b19b      	cbz	r3, 80037f2 <ECCcopyPoint+0x46>
 80037ca:	68ab      	ldr	r3, [r5, #8]
 80037cc:	b18b      	cbz	r3, 80037f2 <ECCcopyPoint+0x46>
 80037ce:	7b23      	ldrb	r3, [r4, #12]
 80037d0:	732b      	strb	r3, [r5, #12]
 80037d2:	7b23      	ldrb	r3, [r4, #12]
 80037d4:	079b      	lsls	r3, r3, #30
 80037d6:	d40f      	bmi.n	80037f8 <ECCcopyPoint+0x4c>
 80037d8:	f7fe fdda 	bl	8002390 <CopyBig>
 80037dc:	b968      	cbnz	r0, 80037fa <ECCcopyPoint+0x4e>
 80037de:	6860      	ldr	r0, [r4, #4]
 80037e0:	6869      	ldr	r1, [r5, #4]
 80037e2:	f7fe fdd5 	bl	8002390 <CopyBig>
 80037e6:	b940      	cbnz	r0, 80037fa <ECCcopyPoint+0x4e>
 80037e8:	68a0      	ldr	r0, [r4, #8]
 80037ea:	68a9      	ldr	r1, [r5, #8]
 80037ec:	f7fe fdd0 	bl	8002390 <CopyBig>
 80037f0:	bd38      	pop	{r3, r4, r5, pc}
 80037f2:	f241 4054 	movw	r0, #5204	; 0x1454
 80037f6:	bd38      	pop	{r3, r4, r5, pc}
 80037f8:	2000      	movs	r0, #0
 80037fa:	bd38      	pop	{r3, r4, r5, pc}

080037fc <Normalize>:
 80037fc:	7b03      	ldrb	r3, [r0, #12]
 80037fe:	b5f7      	push	{r0, r1, r2, r4, r5, r6, r7, lr}
 8003800:	f013 0403 	ands.w	r4, r3, #3
 8003804:	4607      	mov	r7, r0
 8003806:	460e      	mov	r6, r1
 8003808:	4615      	mov	r5, r2
 800380a:	d003      	beq.n	8003814 <Normalize+0x18>
 800380c:	f7ff ffce 	bl	80037ac <ECCcopyPoint>
 8003810:	4604      	mov	r4, r0
 8003812:	e075      	b.n	8003900 <Normalize+0x104>
 8003814:	075b      	lsls	r3, r3, #29
 8003816:	9401      	str	r4, [sp, #4]
 8003818:	d51e      	bpl.n	8003858 <Normalize+0x5c>
 800381a:	6880      	ldr	r0, [r0, #8]
 800381c:	6889      	ldr	r1, [r1, #8]
 800381e:	f7ff fb3b 	bl	8002e98 <MontyExit>
 8003822:	4604      	mov	r4, r0
 8003824:	2800      	cmp	r0, #0
 8003826:	d16b      	bne.n	8003900 <Normalize+0x104>
 8003828:	6838      	ldr	r0, [r7, #0]
 800382a:	6831      	ldr	r1, [r6, #0]
 800382c:	f7fe fdb0 	bl	8002390 <CopyBig>
 8003830:	4604      	mov	r4, r0
 8003832:	2800      	cmp	r0, #0
 8003834:	d164      	bne.n	8003900 <Normalize+0x104>
 8003836:	6878      	ldr	r0, [r7, #4]
 8003838:	6871      	ldr	r1, [r6, #4]
 800383a:	f7fe fda9 	bl	8002390 <CopyBig>
 800383e:	4604      	mov	r4, r0
 8003840:	2800      	cmp	r0, #0
 8003842:	d15d      	bne.n	8003900 <Normalize+0x104>
 8003844:	68b0      	ldr	r0, [r6, #8]
 8003846:	682a      	ldr	r2, [r5, #0]
 8003848:	68eb      	ldr	r3, [r5, #12]
 800384a:	4601      	mov	r1, r0
 800384c:	f7ff fb9b 	bl	8002f86 <ModularInvBig>
 8003850:	4604      	mov	r4, r0
 8003852:	2800      	cmp	r0, #0
 8003854:	d154      	bne.n	8003900 <Normalize+0x104>
 8003856:	e00f      	b.n	8003878 <Normalize+0x7c>
 8003858:	6851      	ldr	r1, [r2, #4]
 800385a:	6800      	ldr	r0, [r0, #0]
 800385c:	6832      	ldr	r2, [r6, #0]
 800385e:	462b      	mov	r3, r5
 8003860:	f7ff fa2f 	bl	8002cc2 <MontyMul>
 8003864:	4604      	mov	r4, r0
 8003866:	2800      	cmp	r0, #0
 8003868:	d14a      	bne.n	8003900 <Normalize+0x104>
 800386a:	6878      	ldr	r0, [r7, #4]
 800386c:	6869      	ldr	r1, [r5, #4]
 800386e:	6872      	ldr	r2, [r6, #4]
 8003870:	462b      	mov	r3, r5
 8003872:	f7ff fa26 	bl	8002cc2 <MontyMul>
 8003876:	e7e2      	b.n	800383e <Normalize+0x42>
 8003878:	68b0      	ldr	r0, [r6, #8]
 800387a:	6869      	ldr	r1, [r5, #4]
 800387c:	4602      	mov	r2, r0
 800387e:	462b      	mov	r3, r5
 8003880:	f7ff fa1f 	bl	8002cc2 <MontyMul>
 8003884:	4604      	mov	r4, r0
 8003886:	2800      	cmp	r0, #0
 8003888:	d13a      	bne.n	8003900 <Normalize+0x104>
 800388a:	682b      	ldr	r3, [r5, #0]
 800388c:	68ea      	ldr	r2, [r5, #12]
 800388e:	7999      	ldrb	r1, [r3, #6]
 8003890:	a801      	add	r0, sp, #4
 8003892:	f7fe fd3e 	bl	8002312 <StAllocBig>
 8003896:	4604      	mov	r4, r0
 8003898:	2800      	cmp	r0, #0
 800389a:	d131      	bne.n	8003900 <Normalize+0x104>
 800389c:	68b0      	ldr	r0, [r6, #8]
 800389e:	9a01      	ldr	r2, [sp, #4]
 80038a0:	4601      	mov	r1, r0
 80038a2:	462b      	mov	r3, r5
 80038a4:	f7ff fa0d 	bl	8002cc2 <MontyMul>
 80038a8:	4604      	mov	r4, r0
 80038aa:	b120      	cbz	r0, 80038b6 <Normalize+0xba>
 80038ac:	a801      	add	r0, sp, #4
 80038ae:	68e9      	ldr	r1, [r5, #12]
 80038b0:	f7fe fd4a 	bl	8002348 <StFreeBig>
 80038b4:	e024      	b.n	8003900 <Normalize+0x104>
 80038b6:	6830      	ldr	r0, [r6, #0]
 80038b8:	9901      	ldr	r1, [sp, #4]
 80038ba:	4602      	mov	r2, r0
 80038bc:	462b      	mov	r3, r5
 80038be:	f7ff fa00 	bl	8002cc2 <MontyMul>
 80038c2:	68b0      	ldr	r0, [r6, #8]
 80038c4:	9901      	ldr	r1, [sp, #4]
 80038c6:	4602      	mov	r2, r0
 80038c8:	462b      	mov	r3, r5
 80038ca:	f7ff f9fa 	bl	8002cc2 <MontyMul>
 80038ce:	a801      	add	r0, sp, #4
 80038d0:	68e9      	ldr	r1, [r5, #12]
 80038d2:	f7fe fd39 	bl	8002348 <StFreeBig>
 80038d6:	6871      	ldr	r1, [r6, #4]
 80038d8:	68b0      	ldr	r0, [r6, #8]
 80038da:	460a      	mov	r2, r1
 80038dc:	462b      	mov	r3, r5
 80038de:	f7ff f9f0 	bl	8002cc2 <MontyMul>
 80038e2:	4604      	mov	r4, r0
 80038e4:	b960      	cbnz	r0, 8003900 <Normalize+0x104>
 80038e6:	4629      	mov	r1, r5
 80038e8:	4630      	mov	r0, r6
 80038ea:	f7ff fc49 	bl	8003180 <ECCpointFromMonty>
 80038ee:	68b2      	ldr	r2, [r6, #8]
 80038f0:	6811      	ldr	r1, [r2, #0]
 80038f2:	2301      	movs	r3, #1
 80038f4:	4604      	mov	r4, r0
 80038f6:	2000      	movs	r0, #0
 80038f8:	600b      	str	r3, [r1, #0]
 80038fa:	6048      	str	r0, [r1, #4]
 80038fc:	8093      	strh	r3, [r2, #4]
 80038fe:	7333      	strb	r3, [r6, #12]
 8003900:	4620      	mov	r0, r4
 8003902:	b003      	add	sp, #12
 8003904:	bdf0      	pop	{r4, r5, r6, r7, pc}

08003906 <MontyJacProjAddPoints>:
 8003906:	e92d 43f0 	stmdb	sp!, {r4, r5, r6, r7, r8, r9, lr}
 800390a:	b087      	sub	sp, #28
 800390c:	4699      	mov	r9, r3
 800390e:	9c0e      	ldr	r4, [sp, #56]	; 0x38
 8003910:	6823      	ldr	r3, [r4, #0]
 8003912:	4688      	mov	r8, r1
 8003914:	2100      	movs	r1, #0
 8003916:	9103      	str	r1, [sp, #12]
 8003918:	9104      	str	r1, [sp, #16]
 800391a:	9105      	str	r1, [sp, #20]
 800391c:	7999      	ldrb	r1, [r3, #6]
 800391e:	4607      	mov	r7, r0
 8003920:	4616      	mov	r6, r2
 8003922:	a803      	add	r0, sp, #12
 8003924:	3101      	adds	r1, #1
 8003926:	68e2      	ldr	r2, [r4, #12]
 8003928:	f7fe fcf3 	bl	8002312 <StAllocBig>
 800392c:	4605      	mov	r5, r0
 800392e:	2800      	cmp	r0, #0
 8003930:	f040 8118 	bne.w	8003b64 <MontyJacProjAddPoints+0x25e>
 8003934:	6823      	ldr	r3, [r4, #0]
 8003936:	68e2      	ldr	r2, [r4, #12]
 8003938:	7999      	ldrb	r1, [r3, #6]
 800393a:	a804      	add	r0, sp, #16
 800393c:	3101      	adds	r1, #1
 800393e:	f7fe fce8 	bl	8002312 <StAllocBig>
 8003942:	4605      	mov	r5, r0
 8003944:	2800      	cmp	r0, #0
 8003946:	f040 8109 	bne.w	8003b5c <MontyJacProjAddPoints+0x256>
 800394a:	6823      	ldr	r3, [r4, #0]
 800394c:	68e2      	ldr	r2, [r4, #12]
 800394e:	7999      	ldrb	r1, [r3, #6]
 8003950:	a805      	add	r0, sp, #20
 8003952:	3101      	adds	r1, #1
 8003954:	f7fe fcdd 	bl	8002312 <StAllocBig>
 8003958:	4605      	mov	r5, r0
 800395a:	2800      	cmp	r0, #0
 800395c:	f040 80fa 	bne.w	8003b54 <MontyJacProjAddPoints+0x24e>
 8003960:	7b3b      	ldrb	r3, [r7, #12]
 8003962:	f898 100c 	ldrb.w	r1, [r8, #12]
 8003966:	f013 0f02 	tst.w	r3, #2
 800396a:	d003      	beq.n	8003974 <MontyJacProjAddPoints+0x6e>
 800396c:	078f      	lsls	r7, r1, #30
 800396e:	d479      	bmi.n	8003a64 <MontyJacProjAddPoints+0x15e>
 8003970:	4640      	mov	r0, r8
 8003972:	e002      	b.n	800397a <MontyJacProjAddPoints+0x74>
 8003974:	0788      	lsls	r0, r1, #30
 8003976:	d504      	bpl.n	8003982 <MontyJacProjAddPoints+0x7c>
 8003978:	4638      	mov	r0, r7
 800397a:	4631      	mov	r1, r6
 800397c:	f7ff ff16 	bl	80037ac <ECCcopyPoint>
 8003980:	e0e4      	b.n	8003b4c <MontyJacProjAddPoints+0x246>
 8003982:	07ca      	lsls	r2, r1, #31
 8003984:	d41e      	bmi.n	80039c4 <MontyJacProjAddPoints+0xbe>
 8003986:	f8d8 0008 	ldr.w	r0, [r8, #8]
 800398a:	9a03      	ldr	r2, [sp, #12]
 800398c:	4601      	mov	r1, r0
 800398e:	4623      	mov	r3, r4
 8003990:	f7ff f997 	bl	8002cc2 <MontyMul>
 8003994:	4605      	mov	r5, r0
 8003996:	2800      	cmp	r0, #0
 8003998:	f040 80d8 	bne.w	8003b4c <MontyJacProjAddPoints+0x246>
 800399c:	9903      	ldr	r1, [sp, #12]
 800399e:	6832      	ldr	r2, [r6, #0]
 80039a0:	6838      	ldr	r0, [r7, #0]
 80039a2:	4623      	mov	r3, r4
 80039a4:	f7ff f98d 	bl	8002cc2 <MontyMul>
 80039a8:	9903      	ldr	r1, [sp, #12]
 80039aa:	9a05      	ldr	r2, [sp, #20]
 80039ac:	f8d8 0008 	ldr.w	r0, [r8, #8]
 80039b0:	4623      	mov	r3, r4
 80039b2:	f7ff f986 	bl	8002cc2 <MontyMul>
 80039b6:	6878      	ldr	r0, [r7, #4]
 80039b8:	9905      	ldr	r1, [sp, #20]
 80039ba:	6872      	ldr	r2, [r6, #4]
 80039bc:	4623      	mov	r3, r4
 80039be:	f7ff f980 	bl	8002cc2 <MontyMul>
 80039c2:	e00b      	b.n	80039dc <MontyJacProjAddPoints+0xd6>
 80039c4:	6838      	ldr	r0, [r7, #0]
 80039c6:	6831      	ldr	r1, [r6, #0]
 80039c8:	f7fe fce2 	bl	8002390 <CopyBig>
 80039cc:	4605      	mov	r5, r0
 80039ce:	2800      	cmp	r0, #0
 80039d0:	f040 80bc 	bne.w	8003b4c <MontyJacProjAddPoints+0x246>
 80039d4:	6878      	ldr	r0, [r7, #4]
 80039d6:	6871      	ldr	r1, [r6, #4]
 80039d8:	f7fe fcda 	bl	8002390 <CopyBig>
 80039dc:	68b8      	ldr	r0, [r7, #8]
 80039de:	9a03      	ldr	r2, [sp, #12]
 80039e0:	4601      	mov	r1, r0
 80039e2:	4623      	mov	r3, r4
 80039e4:	f7ff f96d 	bl	8002cc2 <MontyMul>
 80039e8:	4605      	mov	r5, r0
 80039ea:	2800      	cmp	r0, #0
 80039ec:	f040 80ae 	bne.w	8003b4c <MontyJacProjAddPoints+0x246>
 80039f0:	9903      	ldr	r1, [sp, #12]
 80039f2:	9a04      	ldr	r2, [sp, #16]
 80039f4:	f8d8 0000 	ldr.w	r0, [r8]
 80039f8:	4623      	mov	r3, r4
 80039fa:	f7ff f962 	bl	8002cc2 <MontyMul>
 80039fe:	68e3      	ldr	r3, [r4, #12]
 8003a00:	9804      	ldr	r0, [sp, #16]
 8003a02:	9300      	str	r3, [sp, #0]
 8003a04:	6831      	ldr	r1, [r6, #0]
 8003a06:	6823      	ldr	r3, [r4, #0]
 8003a08:	4602      	mov	r2, r0
 8003a0a:	f7ff fa8a 	bl	8002f22 <ModularSubBig>
 8003a0e:	4605      	mov	r5, r0
 8003a10:	2800      	cmp	r0, #0
 8003a12:	f040 809b 	bne.w	8003b4c <MontyJacProjAddPoints+0x246>
 8003a16:	9903      	ldr	r1, [sp, #12]
 8003a18:	68b8      	ldr	r0, [r7, #8]
 8003a1a:	460a      	mov	r2, r1
 8003a1c:	4623      	mov	r3, r4
 8003a1e:	f7ff f950 	bl	8002cc2 <MontyMul>
 8003a22:	9903      	ldr	r1, [sp, #12]
 8003a24:	f8d8 0004 	ldr.w	r0, [r8, #4]
 8003a28:	460a      	mov	r2, r1
 8003a2a:	4623      	mov	r3, r4
 8003a2c:	f7ff f949 	bl	8002cc2 <MontyMul>
 8003a30:	68e3      	ldr	r3, [r4, #12]
 8003a32:	9300      	str	r3, [sp, #0]
 8003a34:	6871      	ldr	r1, [r6, #4]
 8003a36:	9a05      	ldr	r2, [sp, #20]
 8003a38:	6823      	ldr	r3, [r4, #0]
 8003a3a:	9803      	ldr	r0, [sp, #12]
 8003a3c:	f7ff fa71 	bl	8002f22 <ModularSubBig>
 8003a40:	9804      	ldr	r0, [sp, #16]
 8003a42:	f7fe fd39 	bl	80024b8 <IsZeroBig>
 8003a46:	2801      	cmp	r0, #1
 8003a48:	d10e      	bne.n	8003a68 <MontyJacProjAddPoints+0x162>
 8003a4a:	9805      	ldr	r0, [sp, #20]
 8003a4c:	f7fe fd34 	bl	80024b8 <IsZeroBig>
 8003a50:	2801      	cmp	r0, #1
 8003a52:	d107      	bne.n	8003a64 <MontyJacProjAddPoints+0x15e>
 8003a54:	4638      	mov	r0, r7
 8003a56:	4631      	mov	r1, r6
 8003a58:	464a      	mov	r2, r9
 8003a5a:	4623      	mov	r3, r4
 8003a5c:	f7ff fbaf 	bl	80031be <MontyJacProjDoublePoint>
 8003a60:	4605      	mov	r5, r0
 8003a62:	e073      	b.n	8003b4c <MontyJacProjAddPoints+0x246>
 8003a64:	2302      	movs	r3, #2
 8003a66:	e070      	b.n	8003b4a <MontyJacProjAddPoints+0x244>
 8003a68:	f898 300c 	ldrb.w	r3, [r8, #12]
 8003a6c:	68b8      	ldr	r0, [r7, #8]
 8003a6e:	07db      	lsls	r3, r3, #31
 8003a70:	d412      	bmi.n	8003a98 <MontyJacProjAddPoints+0x192>
 8003a72:	f8d8 1008 	ldr.w	r1, [r8, #8]
 8003a76:	68b2      	ldr	r2, [r6, #8]
 8003a78:	4623      	mov	r3, r4
 8003a7a:	f7ff f922 	bl	8002cc2 <MontyMul>
 8003a7e:	4605      	mov	r5, r0
 8003a80:	2800      	cmp	r0, #0
 8003a82:	d163      	bne.n	8003b4c <MontyJacProjAddPoints+0x246>
 8003a84:	68b0      	ldr	r0, [r6, #8]
 8003a86:	9904      	ldr	r1, [sp, #16]
 8003a88:	4602      	mov	r2, r0
 8003a8a:	4623      	mov	r3, r4
 8003a8c:	f7ff f919 	bl	8002cc2 <MontyMul>
 8003a90:	4605      	mov	r5, r0
 8003a92:	2800      	cmp	r0, #0
 8003a94:	d15a      	bne.n	8003b4c <MontyJacProjAddPoints+0x246>
 8003a96:	e003      	b.n	8003aa0 <MontyJacProjAddPoints+0x19a>
 8003a98:	68b1      	ldr	r1, [r6, #8]
 8003a9a:	f7fe fc79 	bl	8002390 <CopyBig>
 8003a9e:	e7ee      	b.n	8003a7e <MontyJacProjAddPoints+0x178>
 8003aa0:	9804      	ldr	r0, [sp, #16]
 8003aa2:	9a03      	ldr	r2, [sp, #12]
 8003aa4:	4601      	mov	r1, r0
 8003aa6:	4623      	mov	r3, r4
 8003aa8:	f7ff f90b 	bl	8002cc2 <MontyMul>
 8003aac:	9804      	ldr	r0, [sp, #16]
 8003aae:	9903      	ldr	r1, [sp, #12]
 8003ab0:	4602      	mov	r2, r0
 8003ab2:	4623      	mov	r3, r4
 8003ab4:	f7ff f905 	bl	8002cc2 <MontyMul>
 8003ab8:	9803      	ldr	r0, [sp, #12]
 8003aba:	6831      	ldr	r1, [r6, #0]
 8003abc:	4602      	mov	r2, r0
 8003abe:	4623      	mov	r3, r4
 8003ac0:	f7ff f8ff 	bl	8002cc2 <MontyMul>
 8003ac4:	6870      	ldr	r0, [r6, #4]
 8003ac6:	9904      	ldr	r1, [sp, #16]
 8003ac8:	4602      	mov	r2, r0
 8003aca:	4623      	mov	r3, r4
 8003acc:	f7ff f8f9 	bl	8002cc2 <MontyMul>
 8003ad0:	9805      	ldr	r0, [sp, #20]
 8003ad2:	6832      	ldr	r2, [r6, #0]
 8003ad4:	4601      	mov	r1, r0
 8003ad6:	4623      	mov	r3, r4
 8003ad8:	f7ff f8f3 	bl	8002cc2 <MontyMul>
 8003adc:	68e3      	ldr	r3, [r4, #12]
 8003ade:	6830      	ldr	r0, [r6, #0]
 8003ae0:	9300      	str	r3, [sp, #0]
 8003ae2:	9904      	ldr	r1, [sp, #16]
 8003ae4:	6823      	ldr	r3, [r4, #0]
 8003ae6:	4602      	mov	r2, r0
 8003ae8:	f7ff fa1b 	bl	8002f22 <ModularSubBig>
 8003aec:	4605      	mov	r5, r0
 8003aee:	2800      	cmp	r0, #0
 8003af0:	d12c      	bne.n	8003b4c <MontyJacProjAddPoints+0x246>
 8003af2:	9904      	ldr	r1, [sp, #16]
 8003af4:	9803      	ldr	r0, [sp, #12]
 8003af6:	f7fe fc4b 	bl	8002390 <CopyBig>
 8003afa:	9804      	ldr	r0, [sp, #16]
 8003afc:	6821      	ldr	r1, [r4, #0]
 8003afe:	68e2      	ldr	r2, [r4, #12]
 8003b00:	f7ff fa25 	bl	8002f4e <ModularFastMul2>
 8003b04:	4605      	mov	r5, r0
 8003b06:	bb08      	cbnz	r0, 8003b4c <MontyJacProjAddPoints+0x246>
 8003b08:	68e3      	ldr	r3, [r4, #12]
 8003b0a:	6830      	ldr	r0, [r6, #0]
 8003b0c:	9300      	str	r3, [sp, #0]
 8003b0e:	9904      	ldr	r1, [sp, #16]
 8003b10:	6823      	ldr	r3, [r4, #0]
 8003b12:	4602      	mov	r2, r0
 8003b14:	f7ff fa05 	bl	8002f22 <ModularSubBig>
 8003b18:	68e3      	ldr	r3, [r4, #12]
 8003b1a:	9300      	str	r3, [sp, #0]
 8003b1c:	6831      	ldr	r1, [r6, #0]
 8003b1e:	9a04      	ldr	r2, [sp, #16]
 8003b20:	6823      	ldr	r3, [r4, #0]
 8003b22:	9803      	ldr	r0, [sp, #12]
 8003b24:	f7ff f9fd 	bl	8002f22 <ModularSubBig>
 8003b28:	9804      	ldr	r0, [sp, #16]
 8003b2a:	9905      	ldr	r1, [sp, #20]
 8003b2c:	4602      	mov	r2, r0
 8003b2e:	4623      	mov	r3, r4
 8003b30:	f7ff f8c7 	bl	8002cc2 <MontyMul>
 8003b34:	4605      	mov	r5, r0
 8003b36:	b948      	cbnz	r0, 8003b4c <MontyJacProjAddPoints+0x246>
 8003b38:	68e3      	ldr	r3, [r4, #12]
 8003b3a:	6871      	ldr	r1, [r6, #4]
 8003b3c:	9300      	str	r3, [sp, #0]
 8003b3e:	6823      	ldr	r3, [r4, #0]
 8003b40:	9804      	ldr	r0, [sp, #16]
 8003b42:	460a      	mov	r2, r1
 8003b44:	f7ff f9ed 	bl	8002f22 <ModularSubBig>
 8003b48:	2304      	movs	r3, #4
 8003b4a:	7333      	strb	r3, [r6, #12]
 8003b4c:	a805      	add	r0, sp, #20
 8003b4e:	68e1      	ldr	r1, [r4, #12]
 8003b50:	f7fe fbfa 	bl	8002348 <StFreeBig>
 8003b54:	a804      	add	r0, sp, #16
 8003b56:	68e1      	ldr	r1, [r4, #12]
 8003b58:	f7fe fbf6 	bl	8002348 <StFreeBig>
 8003b5c:	a803      	add	r0, sp, #12
 8003b5e:	68e1      	ldr	r1, [r4, #12]
 8003b60:	f7fe fbf2 	bl	8002348 <StFreeBig>
 8003b64:	4628      	mov	r0, r5
 8003b66:	b007      	add	sp, #28
 8003b68:	e8bd 83f0 	ldmia.w	sp!, {r4, r5, r6, r7, r8, r9, pc}

08003b6c <Binary_DoublePointMul>:
 8003b6c:	e92d 4ff0 	stmdb	sp!, {r4, r5, r6, r7, r8, r9, sl, fp, lr}
 8003b70:	b087      	sub	sp, #28
 8003b72:	4682      	mov	sl, r0
 8003b74:	9d12      	ldr	r5, [sp, #72]	; 0x48
 8003b76:	9e10      	ldr	r6, [sp, #64]	; 0x40
 8003b78:	9f11      	ldr	r7, [sp, #68]	; 0x44
 8003b7a:	4608      	mov	r0, r1
 8003b7c:	4689      	mov	r9, r1
 8003b7e:	4698      	mov	r8, r3
 8003b80:	4629      	mov	r1, r5
 8003b82:	2300      	movs	r3, #0
 8003b84:	4693      	mov	fp, r2
 8003b86:	9303      	str	r3, [sp, #12]
 8003b88:	9304      	str	r3, [sp, #16]
 8003b8a:	9305      	str	r3, [sp, #20]
 8003b8c:	f7ff fad8 	bl	8003140 <ECCpoint2Monty>
 8003b90:	4604      	mov	r4, r0
 8003b92:	2800      	cmp	r0, #0
 8003b94:	f040 8086 	bne.w	8003ca4 <Binary_DoublePointMul+0x138>
 8003b98:	a803      	add	r0, sp, #12
 8003b9a:	4639      	mov	r1, r7
 8003b9c:	68ea      	ldr	r2, [r5, #12]
 8003b9e:	f7ff fd55 	bl	800364c <ECCinitPoint>
 8003ba2:	4604      	mov	r4, r0
 8003ba4:	2800      	cmp	r0, #0
 8003ba6:	d17d      	bne.n	8003ca4 <Binary_DoublePointMul+0x138>
 8003ba8:	9903      	ldr	r1, [sp, #12]
 8003baa:	4640      	mov	r0, r8
 8003bac:	f7ff fdfe 	bl	80037ac <ECCcopyPoint>
 8003bb0:	9803      	ldr	r0, [sp, #12]
 8003bb2:	4629      	mov	r1, r5
 8003bb4:	f7ff fac4 	bl	8003140 <ECCpoint2Monty>
 8003bb8:	4604      	mov	r4, r0
 8003bba:	2800      	cmp	r0, #0
 8003bbc:	d16e      	bne.n	8003c9c <Binary_DoublePointMul+0x130>
 8003bbe:	a805      	add	r0, sp, #20
 8003bc0:	4639      	mov	r1, r7
 8003bc2:	68ea      	ldr	r2, [r5, #12]
 8003bc4:	f7ff fd42 	bl	800364c <ECCinitPoint>
 8003bc8:	4604      	mov	r4, r0
 8003bca:	2800      	cmp	r0, #0
 8003bcc:	d166      	bne.n	8003c9c <Binary_DoublePointMul+0x130>
 8003bce:	9b05      	ldr	r3, [sp, #20]
 8003bd0:	68ea      	ldr	r2, [r5, #12]
 8003bd2:	f04f 0802 	mov.w	r8, #2
 8003bd6:	f883 800c 	strb.w	r8, [r3, #12]
 8003bda:	a804      	add	r0, sp, #16
 8003bdc:	4639      	mov	r1, r7
 8003bde:	f7ff fd35 	bl	800364c <ECCinitPoint>
 8003be2:	4604      	mov	r4, r0
 8003be4:	2800      	cmp	r0, #0
 8003be6:	d155      	bne.n	8003c94 <Binary_DoublePointMul+0x128>
 8003be8:	9a04      	ldr	r2, [sp, #16]
 8003bea:	9903      	ldr	r1, [sp, #12]
 8003bec:	f882 800c 	strb.w	r8, [r2, #12]
 8003bf0:	4648      	mov	r0, r9
 8003bf2:	9500      	str	r5, [sp, #0]
 8003bf4:	463b      	mov	r3, r7
 8003bf6:	f7ff fe86 	bl	8003906 <MontyJacProjAddPoints>
 8003bfa:	4604      	mov	r4, r0
 8003bfc:	2800      	cmp	r0, #0
 8003bfe:	d145      	bne.n	8003c8c <Binary_DoublePointMul+0x120>
 8003c00:	f8ba 8004 	ldrh.w	r8, [sl, #4]
 8003c04:	f8bb 3004 	ldrh.w	r3, [fp, #4]
 8003c08:	4598      	cmp	r8, r3
 8003c0a:	bf38      	it	cc
 8003c0c:	4698      	movcc	r8, r3
 8003c0e:	ea4f 1848 	mov.w	r8, r8, lsl #5
 8003c12:	f108 38ff 	add.w	r8, r8, #4294967295	; 0xffffffff
 8003c16:	f1b8 3fff 	cmp.w	r8, #4294967295	; 0xffffffff
 8003c1a:	9805      	ldr	r0, [sp, #20]
 8003c1c:	4631      	mov	r1, r6
 8003c1e:	d032      	beq.n	8003c86 <Binary_DoublePointMul+0x11a>
 8003c20:	463a      	mov	r2, r7
 8003c22:	462b      	mov	r3, r5
 8003c24:	f7ff facb 	bl	80031be <MontyJacProjDoublePoint>
 8003c28:	4604      	mov	r4, r0
 8003c2a:	2800      	cmp	r0, #0
 8003c2c:	d12e      	bne.n	8003c8c <Binary_DoublePointMul+0x120>
 8003c2e:	9905      	ldr	r1, [sp, #20]
 8003c30:	4630      	mov	r0, r6
 8003c32:	f7ff fdbb 	bl	80037ac <ECCcopyPoint>
 8003c36:	4641      	mov	r1, r8
 8003c38:	4650      	mov	r0, sl
 8003c3a:	f7fe fccf 	bl	80025dc <GiveBit>
 8003c3e:	4641      	mov	r1, r8
 8003c40:	4604      	mov	r4, r0
 8003c42:	4658      	mov	r0, fp
 8003c44:	f7fe fcca 	bl	80025dc <GiveBit>
 8003c48:	2c01      	cmp	r4, #1
 8003c4a:	d104      	bne.n	8003c56 <Binary_DoublePointMul+0xea>
 8003c4c:	b9a8      	cbnz	r0, 8003c7a <Binary_DoublePointMul+0x10e>
 8003c4e:	9500      	str	r5, [sp, #0]
 8003c50:	9805      	ldr	r0, [sp, #20]
 8003c52:	4649      	mov	r1, r9
 8003c54:	e006      	b.n	8003c64 <Binary_DoublePointMul+0xf8>
 8003c56:	2c00      	cmp	r4, #0
 8003c58:	d1db      	bne.n	8003c12 <Binary_DoublePointMul+0xa6>
 8003c5a:	2801      	cmp	r0, #1
 8003c5c:	d1d9      	bne.n	8003c12 <Binary_DoublePointMul+0xa6>
 8003c5e:	9805      	ldr	r0, [sp, #20]
 8003c60:	9903      	ldr	r1, [sp, #12]
 8003c62:	9500      	str	r5, [sp, #0]
 8003c64:	4632      	mov	r2, r6
 8003c66:	463b      	mov	r3, r7
 8003c68:	f7ff fe4d 	bl	8003906 <MontyJacProjAddPoints>
 8003c6c:	4604      	mov	r4, r0
 8003c6e:	b968      	cbnz	r0, 8003c8c <Binary_DoublePointMul+0x120>
 8003c70:	4630      	mov	r0, r6
 8003c72:	9905      	ldr	r1, [sp, #20]
 8003c74:	f7ff fd9a 	bl	80037ac <ECCcopyPoint>
 8003c78:	e7cb      	b.n	8003c12 <Binary_DoublePointMul+0xa6>
 8003c7a:	2801      	cmp	r0, #1
 8003c7c:	d1c9      	bne.n	8003c12 <Binary_DoublePointMul+0xa6>
 8003c7e:	9500      	str	r5, [sp, #0]
 8003c80:	9805      	ldr	r0, [sp, #20]
 8003c82:	9904      	ldr	r1, [sp, #16]
 8003c84:	e7ee      	b.n	8003c64 <Binary_DoublePointMul+0xf8>
 8003c86:	f7ff fd91 	bl	80037ac <ECCcopyPoint>
 8003c8a:	4604      	mov	r4, r0
 8003c8c:	a804      	add	r0, sp, #16
 8003c8e:	68e9      	ldr	r1, [r5, #12]
 8003c90:	f7ff fd45 	bl	800371e <ECCfreePoint>
 8003c94:	a805      	add	r0, sp, #20
 8003c96:	68e9      	ldr	r1, [r5, #12]
 8003c98:	f7ff fd41 	bl	800371e <ECCfreePoint>
 8003c9c:	a803      	add	r0, sp, #12
 8003c9e:	68e9      	ldr	r1, [r5, #12]
 8003ca0:	f7ff fd3d 	bl	800371e <ECCfreePoint>
 8003ca4:	4620      	mov	r0, r4
 8003ca6:	b007      	add	sp, #28
 8003ca8:	e8bd 8ff0 	ldmia.w	sp!, {r4, r5, r6, r7, r8, r9, sl, fp, pc}

08003cac <ECCsetPointGenerator>:
 8003cac:	b573      	push	{r0, r1, r4, r5, r6, lr}
 8003cae:	2300      	movs	r3, #0
 8003cb0:	460e      	mov	r6, r1
 8003cb2:	9301      	str	r3, [sp, #4]
 8003cb4:	4604      	mov	r4, r0
 8003cb6:	2800      	cmp	r0, #0
 8003cb8:	d035      	beq.n	8003d26 <ECCsetPointGenerator+0x7a>
 8003cba:	2900      	cmp	r1, #0
 8003cbc:	d033      	beq.n	8003d26 <ECCsetPointGenerator+0x7a>
 8003cbe:	6b0b      	ldr	r3, [r1, #48]	; 0x30
 8003cc0:	2b00      	cmp	r3, #0
 8003cc2:	d033      	beq.n	8003d2c <ECCsetPointGenerator+0x80>
 8003cc4:	6918      	ldr	r0, [r3, #16]
 8003cc6:	2800      	cmp	r0, #0
 8003cc8:	d030      	beq.n	8003d2c <ECCsetPointGenerator+0x80>
 8003cca:	695b      	ldr	r3, [r3, #20]
 8003ccc:	2b00      	cmp	r3, #0
 8003cce:	d02d      	beq.n	8003d2c <ECCsetPointGenerator+0x80>
 8003cd0:	6821      	ldr	r1, [r4, #0]
 8003cd2:	f7fe fb5d 	bl	8002390 <CopyBig>
 8003cd6:	4605      	mov	r5, r0
 8003cd8:	2800      	cmp	r0, #0
 8003cda:	d129      	bne.n	8003d30 <ECCsetPointGenerator+0x84>
 8003cdc:	6b33      	ldr	r3, [r6, #48]	; 0x30
 8003cde:	6861      	ldr	r1, [r4, #4]
 8003ce0:	6958      	ldr	r0, [r3, #20]
 8003ce2:	f7fe fb55 	bl	8002390 <CopyBig>
 8003ce6:	4605      	mov	r5, r0
 8003ce8:	bb10      	cbnz	r0, 8003d30 <ECCsetPointGenerator+0x84>
 8003cea:	68a0      	ldr	r0, [r4, #8]
 8003cec:	2101      	movs	r1, #1
 8003cee:	f7fe fb38 	bl	8002362 <InitBig>
 8003cf2:	4b11      	ldr	r3, [pc, #68]	; (8003d38 <ECCsetPointGenerator+0x8c>)
 8003cf4:	2201      	movs	r2, #1
 8003cf6:	601a      	str	r2, [r3, #0]
 8003cf8:	681b      	ldr	r3, [r3, #0]
 8003cfa:	9301      	str	r3, [sp, #4]
 8003cfc:	4b0f      	ldr	r3, [pc, #60]	; (8003d3c <ECCsetPointGenerator+0x90>)
 8003cfe:	681a      	ldr	r2, [r3, #0]
 8003d00:	9201      	str	r2, [sp, #4]
 8003d02:	9a01      	ldr	r2, [sp, #4]
 8003d04:	3201      	adds	r2, #1
 8003d06:	d105      	bne.n	8003d14 <ECCsetPointGenerator+0x68>
 8003d08:	9a01      	ldr	r2, [sp, #4]
 8003d0a:	601a      	str	r2, [r3, #0]
 8003d0c:	681b      	ldr	r3, [r3, #0]
 8003d0e:	9301      	str	r3, [sp, #4]
 8003d10:	9b01      	ldr	r3, [sp, #4]
 8003d12:	b12b      	cbz	r3, 8003d20 <ECCsetPointGenerator+0x74>
 8003d14:	e894 000c 	ldmia.w	r4, {r2, r3}
 8003d18:	6023      	str	r3, [r4, #0]
 8003d1a:	68a3      	ldr	r3, [r4, #8]
 8003d1c:	6063      	str	r3, [r4, #4]
 8003d1e:	60a2      	str	r2, [r4, #8]
 8003d20:	2301      	movs	r3, #1
 8003d22:	7323      	strb	r3, [r4, #12]
 8003d24:	e004      	b.n	8003d30 <ECCsetPointGenerator+0x84>
 8003d26:	f241 4554 	movw	r5, #5204	; 0x1454
 8003d2a:	e001      	b.n	8003d30 <ECCsetPointGenerator+0x84>
 8003d2c:	f241 4553 	movw	r5, #5203	; 0x1453
 8003d30:	4628      	mov	r0, r5
 8003d32:	b002      	add	sp, #8
 8003d34:	bd70      	pop	{r4, r5, r6, pc}
 8003d36:	bf00      	nop
 8003d38:	40023008 	.word	0x40023008
 8003d3c:	40023000 	.word	0x40023000

08003d40 <ECDSAinitSign>:
 8003d40:	b5f8      	push	{r3, r4, r5, r6, r7, lr}
 8003d42:	4605      	mov	r5, r0
 8003d44:	4614      	mov	r4, r2
 8003d46:	460e      	mov	r6, r1
 8003d48:	b359      	cbz	r1, 8003da2 <ECDSAinitSign+0x62>
 8003d4a:	b352      	cbz	r2, 8003da2 <ECDSAinitSign+0x62>
 8003d4c:	b348      	cbz	r0, 8003da2 <ECDSAinitSign+0x62>
 8003d4e:	6b0b      	ldr	r3, [r1, #48]	; 0x30
 8003d50:	b353      	cbz	r3, 8003da8 <ECDSAinitSign+0x68>
 8003d52:	6810      	ldr	r0, [r2, #0]
 8003d54:	b340      	cbz	r0, 8003da8 <ECDSAinitSign+0x68>
 8003d56:	68df      	ldr	r7, [r3, #12]
 8003d58:	b337      	cbz	r7, 8003da8 <ECDSAinitSign+0x68>
 8003d5a:	88d1      	ldrh	r1, [r2, #6]
 8003d5c:	79bf      	ldrb	r7, [r7, #6]
 8003d5e:	f8b2 c004 	ldrh.w	ip, [r2, #4]
 8003d62:	f101 0308 	add.w	r3, r1, #8
 8003d66:	3703      	adds	r7, #3
 8003d68:	eb03 07c7 	add.w	r7, r3, r7, lsl #3
 8003d6c:	45bc      	cmp	ip, r7
 8003d6e:	d315      	bcc.n	8003d9c <ECDSAinitSign+0x5c>
 8003d70:	4408      	add	r0, r1
 8003d72:	6028      	str	r0, [r5, #0]
 8003d74:	80d3      	strh	r3, [r2, #6]
 8003d76:	6b33      	ldr	r3, [r6, #48]	; 0x30
 8003d78:	68db      	ldr	r3, [r3, #12]
 8003d7a:	7999      	ldrb	r1, [r3, #6]
 8003d7c:	f7fe fac9 	bl	8002312 <StAllocBig>
 8003d80:	b960      	cbnz	r0, 8003d9c <ECDSAinitSign+0x5c>
 8003d82:	6b33      	ldr	r3, [r6, #48]	; 0x30
 8003d84:	6828      	ldr	r0, [r5, #0]
 8003d86:	68db      	ldr	r3, [r3, #12]
 8003d88:	3004      	adds	r0, #4
 8003d8a:	7999      	ldrb	r1, [r3, #6]
 8003d8c:	4622      	mov	r2, r4
 8003d8e:	f7fe fac0 	bl	8002312 <StAllocBig>
 8003d92:	b158      	cbz	r0, 8003dac <ECDSAinitSign+0x6c>
 8003d94:	6828      	ldr	r0, [r5, #0]
 8003d96:	4621      	mov	r1, r4
 8003d98:	f7fe fad6 	bl	8002348 <StFreeBig>
 8003d9c:	f240 30ed 	movw	r0, #1005	; 0x3ed
 8003da0:	bdf8      	pop	{r3, r4, r5, r6, r7, pc}
 8003da2:	f241 4054 	movw	r0, #5204	; 0x1454
 8003da6:	bdf8      	pop	{r3, r4, r5, r6, r7, pc}
 8003da8:	f241 4053 	movw	r0, #5203	; 0x1453
 8003dac:	bdf8      	pop	{r3, r4, r5, r6, r7, pc}

08003dae <ECDSAfreeSign>:
 8003dae:	b538      	push	{r3, r4, r5, lr}
 8003db0:	460d      	mov	r5, r1
 8003db2:	4604      	mov	r4, r0
 8003db4:	b178      	cbz	r0, 8003dd6 <ECDSAfreeSign+0x28>
 8003db6:	b171      	cbz	r1, 8003dd6 <ECDSAfreeSign+0x28>
 8003db8:	6800      	ldr	r0, [r0, #0]
 8003dba:	b160      	cbz	r0, 8003dd6 <ECDSAfreeSign+0x28>
 8003dbc:	f7fe fac4 	bl	8002348 <StFreeBig>
 8003dc0:	6820      	ldr	r0, [r4, #0]
 8003dc2:	4629      	mov	r1, r5
 8003dc4:	3004      	adds	r0, #4
 8003dc6:	f7fe fabf 	bl	8002348 <StFreeBig>
 8003dca:	88eb      	ldrh	r3, [r5, #6]
 8003dcc:	2000      	movs	r0, #0
 8003dce:	3b08      	subs	r3, #8
 8003dd0:	80eb      	strh	r3, [r5, #6]
 8003dd2:	6020      	str	r0, [r4, #0]
 8003dd4:	bd38      	pop	{r3, r4, r5, pc}
 8003dd6:	f241 4054 	movw	r0, #5204	; 0x1454
 8003dda:	bd38      	pop	{r3, r4, r5, pc}

08003ddc <ECDSAsetSignature>:
 8003ddc:	b570      	push	{r4, r5, r6, lr}
 8003dde:	460d      	mov	r5, r1
 8003de0:	4614      	mov	r4, r2
 8003de2:	4619      	mov	r1, r3
 8003de4:	b170      	cbz	r0, 8003e04 <ECDSAsetSignature+0x28>
 8003de6:	b16a      	cbz	r2, 8003e04 <ECDSAsetSignature+0x28>
 8003de8:	6806      	ldr	r6, [r0, #0]
 8003dea:	b15e      	cbz	r6, 8003e04 <ECDSAsetSignature+0x28>
 8003dec:	6842      	ldr	r2, [r0, #4]
 8003dee:	b14a      	cbz	r2, 8003e04 <ECDSAsetSignature+0x28>
 8003df0:	b11d      	cbz	r5, 8003dfa <ECDSAsetSignature+0x1e>
 8003df2:	2d01      	cmp	r5, #1
 8003df4:	d106      	bne.n	8003e04 <ECDSAsetSignature+0x28>
 8003df6:	4620      	mov	r0, r4
 8003df8:	e001      	b.n	8003dfe <ECDSAsetSignature+0x22>
 8003dfa:	4620      	mov	r0, r4
 8003dfc:	4632      	mov	r2, r6
 8003dfe:	f7fe fbfb 	bl	80025f8 <W8_to_Big>
 8003e02:	bd70      	pop	{r4, r5, r6, pc}
 8003e04:	f241 4054 	movw	r0, #5204	; 0x1454
 8003e08:	bd70      	pop	{r4, r5, r6, pc}

08003e0a <ECDSAverify>:
 8003e0a:	e92d 47f0 	stmdb	sp!, {r4, r5, r6, r7, r8, r9, sl, lr}
 8003e0e:	b08c      	sub	sp, #48	; 0x30
 8003e10:	461d      	mov	r5, r3
 8003e12:	2300      	movs	r3, #0
 8003e14:	4689      	mov	r9, r1
 8003e16:	4690      	mov	r8, r2
 8003e18:	9e14      	ldr	r6, [sp, #80]	; 0x50
 8003e1a:	9304      	str	r3, [sp, #16]
 8003e1c:	9305      	str	r3, [sp, #20]
 8003e1e:	9306      	str	r3, [sp, #24]
 8003e20:	9307      	str	r3, [sp, #28]
 8003e22:	4607      	mov	r7, r0
 8003e24:	2800      	cmp	r0, #0
 8003e26:	f000 8160 	beq.w	80040ea <ECDSAverify+0x2e0>
 8003e2a:	2a00      	cmp	r2, #0
 8003e2c:	f000 815d 	beq.w	80040ea <ECDSAverify+0x2e0>
 8003e30:	2d00      	cmp	r5, #0
 8003e32:	f000 815a 	beq.w	80040ea <ECDSAverify+0x2e0>
 8003e36:	2e00      	cmp	r6, #0
 8003e38:	f000 8157 	beq.w	80040ea <ECDSAverify+0x2e0>
 8003e3c:	686b      	ldr	r3, [r5, #4]
 8003e3e:	2b00      	cmp	r3, #0
 8003e40:	f000 8156 	beq.w	80040f0 <ECDSAverify+0x2e6>
 8003e44:	682a      	ldr	r2, [r5, #0]
 8003e46:	2a00      	cmp	r2, #0
 8003e48:	f000 8152 	beq.w	80040f0 <ECDSAverify+0x2e6>
 8003e4c:	6b1b      	ldr	r3, [r3, #48]	; 0x30
 8003e4e:	2b00      	cmp	r3, #0
 8003e50:	f000 814e 	beq.w	80040f0 <ECDSAverify+0x2e6>
 8003e54:	6832      	ldr	r2, [r6, #0]
 8003e56:	2a00      	cmp	r2, #0
 8003e58:	f000 814a 	beq.w	80040f0 <ECDSAverify+0x2e6>
 8003e5c:	f8d8 0000 	ldr.w	r0, [r8]
 8003e60:	2800      	cmp	r0, #0
 8003e62:	f000 8145 	beq.w	80040f0 <ECDSAverify+0x2e6>
 8003e66:	f8d8 2004 	ldr.w	r2, [r8, #4]
 8003e6a:	2a00      	cmp	r2, #0
 8003e6c:	f000 8140 	beq.w	80040f0 <ECDSAverify+0x2e6>
 8003e70:	68da      	ldr	r2, [r3, #12]
 8003e72:	2a00      	cmp	r2, #0
 8003e74:	f000 813f 	beq.w	80040f6 <ECDSAverify+0x2ec>
 8003e78:	6919      	ldr	r1, [r3, #16]
 8003e7a:	2900      	cmp	r1, #0
 8003e7c:	f000 813b 	beq.w	80040f6 <ECDSAverify+0x2ec>
 8003e80:	6959      	ldr	r1, [r3, #20]
 8003e82:	2900      	cmp	r1, #0
 8003e84:	f000 8137 	beq.w	80040f6 <ECDSAverify+0x2ec>
 8003e88:	6899      	ldr	r1, [r3, #8]
 8003e8a:	2900      	cmp	r1, #0
 8003e8c:	f000 8133 	beq.w	80040f6 <ECDSAverify+0x2ec>
 8003e90:	681b      	ldr	r3, [r3, #0]
 8003e92:	2b00      	cmp	r3, #0
 8003e94:	f000 812f 	beq.w	80040f6 <ECDSAverify+0x2ec>
 8003e98:	f8b6 c006 	ldrh.w	ip, [r6, #6]
 8003e9c:	f891 a006 	ldrb.w	sl, [r1, #6]
 8003ea0:	7994      	ldrb	r4, [r2, #6]
 8003ea2:	88b2      	ldrh	r2, [r6, #4]
 8003ea4:	f50c 7ca0 	add.w	ip, ip, #320	; 0x140
 8003ea8:	213c      	movs	r1, #60	; 0x3c
 8003eaa:	fb11 c10a 	smlabb	r1, r1, sl, ip
 8003eae:	2314      	movs	r3, #20
 8003eb0:	fb13 1304 	smlabb	r3, r3, r4, r1
 8003eb4:	429a      	cmp	r2, r3
 8003eb6:	f0c0 8121 	bcc.w	80040fc <ECDSAverify+0x2f2>
 8003eba:	f7fe fafd 	bl	80024b8 <IsZeroBig>
 8003ebe:	b110      	cbz	r0, 8003ec6 <ECDSAverify+0xbc>
 8003ec0:	f44f 747b 	mov.w	r4, #1004	; 0x3ec
 8003ec4:	e11c      	b.n	8004100 <ECDSAverify+0x2f6>
 8003ec6:	686b      	ldr	r3, [r5, #4]
 8003ec8:	f8d8 0000 	ldr.w	r0, [r8]
 8003ecc:	6b1b      	ldr	r3, [r3, #48]	; 0x30
 8003ece:	68d9      	ldr	r1, [r3, #12]
 8003ed0:	f7fe fb1d 	bl	800250e <CompareBig>
 8003ed4:	3001      	adds	r0, #1
 8003ed6:	d1f3      	bne.n	8003ec0 <ECDSAverify+0xb6>
 8003ed8:	f8d8 0004 	ldr.w	r0, [r8, #4]
 8003edc:	f7fe faec 	bl	80024b8 <IsZeroBig>
 8003ee0:	2800      	cmp	r0, #0
 8003ee2:	d1ed      	bne.n	8003ec0 <ECDSAverify+0xb6>
 8003ee4:	686b      	ldr	r3, [r5, #4]
 8003ee6:	f8d8 0004 	ldr.w	r0, [r8, #4]
 8003eea:	6b1b      	ldr	r3, [r3, #48]	; 0x30
 8003eec:	68d9      	ldr	r1, [r3, #12]
 8003eee:	f7fe fb0e 	bl	800250e <CompareBig>
 8003ef2:	3001      	adds	r0, #1
 8003ef4:	d1e4      	bne.n	8003ec0 <ECDSAverify+0xb6>
 8003ef6:	686b      	ldr	r3, [r5, #4]
 8003ef8:	6b1b      	ldr	r3, [r3, #48]	; 0x30
 8003efa:	68db      	ldr	r3, [r3, #12]
 8003efc:	a804      	add	r0, sp, #16
 8003efe:	7999      	ldrb	r1, [r3, #6]
 8003f00:	4632      	mov	r2, r6
 8003f02:	f7fe fa06 	bl	8002312 <StAllocBig>
 8003f06:	4604      	mov	r4, r0
 8003f08:	2800      	cmp	r0, #0
 8003f0a:	f040 80f9 	bne.w	8004100 <ECDSAverify+0x2f6>
 8003f0e:	686b      	ldr	r3, [r5, #4]
 8003f10:	6b1b      	ldr	r3, [r3, #48]	; 0x30
 8003f12:	68d8      	ldr	r0, [r3, #12]
 8003f14:	f7fe fb44 	bl	80025a0 <CountBits>
 8003f18:	ebb0 0fc9 	cmp.w	r0, r9, lsl #3
 8003f1c:	da1b      	bge.n	8003f56 <ECDSAverify+0x14c>
 8003f1e:	686b      	ldr	r3, [r5, #4]
 8003f20:	6b1b      	ldr	r3, [r3, #48]	; 0x30
 8003f22:	68d8      	ldr	r0, [r3, #12]
 8003f24:	f7fe fb3c 	bl	80025a0 <CountBits>
 8003f28:	2308      	movs	r3, #8
 8003f2a:	3007      	adds	r0, #7
 8003f2c:	fb90 f4f3 	sdiv	r4, r0, r3
 8003f30:	4621      	mov	r1, r4
 8003f32:	9a04      	ldr	r2, [sp, #16]
 8003f34:	4638      	mov	r0, r7
 8003f36:	f7fe fb5f 	bl	80025f8 <W8_to_Big>
 8003f3a:	686b      	ldr	r3, [r5, #4]
 8003f3c:	f8dd 9010 	ldr.w	r9, [sp, #16]
 8003f40:	6b1b      	ldr	r3, [r3, #48]	; 0x30
 8003f42:	4607      	mov	r7, r0
 8003f44:	68d8      	ldr	r0, [r3, #12]
 8003f46:	f7fe fb2b 	bl	80025a0 <CountBits>
 8003f4a:	ebc0 01c4 	rsb	r1, r0, r4, lsl #3
 8003f4e:	4648      	mov	r0, r9
 8003f50:	f7fe fc62 	bl	8002818 <RightShift>
 8003f54:	e005      	b.n	8003f62 <ECDSAverify+0x158>
 8003f56:	4638      	mov	r0, r7
 8003f58:	4649      	mov	r1, r9
 8003f5a:	9a04      	ldr	r2, [sp, #16]
 8003f5c:	f7fe fb4c 	bl	80025f8 <W8_to_Big>
 8003f60:	4607      	mov	r7, r0
 8003f62:	2f00      	cmp	r7, #0
 8003f64:	f040 80ba 	bne.w	80040dc <ECDSAverify+0x2d2>
 8003f68:	686b      	ldr	r3, [r5, #4]
 8003f6a:	6b1b      	ldr	r3, [r3, #48]	; 0x30
 8003f6c:	68db      	ldr	r3, [r3, #12]
 8003f6e:	a805      	add	r0, sp, #20
 8003f70:	7999      	ldrb	r1, [r3, #6]
 8003f72:	4632      	mov	r2, r6
 8003f74:	f7fe f9cd 	bl	8002312 <StAllocBig>
 8003f78:	4604      	mov	r4, r0
 8003f7a:	2800      	cmp	r0, #0
 8003f7c:	f040 80b0 	bne.w	80040e0 <ECDSAverify+0x2d6>
 8003f80:	686b      	ldr	r3, [r5, #4]
 8003f82:	f8d8 0004 	ldr.w	r0, [r8, #4]
 8003f86:	6b1b      	ldr	r3, [r3, #48]	; 0x30
 8003f88:	9905      	ldr	r1, [sp, #20]
 8003f8a:	68da      	ldr	r2, [r3, #12]
 8003f8c:	4633      	mov	r3, r6
 8003f8e:	f7fe fffa 	bl	8002f86 <ModularInvBig>
 8003f92:	2800      	cmp	r0, #0
 8003f94:	f040 809b 	bne.w	80040ce <ECDSAverify+0x2c4>
 8003f98:	686b      	ldr	r3, [r5, #4]
 8003f9a:	6b1b      	ldr	r3, [r3, #48]	; 0x30
 8003f9c:	af08      	add	r7, sp, #32
 8003f9e:	68d8      	ldr	r0, [r3, #12]
 8003fa0:	4639      	mov	r1, r7
 8003fa2:	4632      	mov	r2, r6
 8003fa4:	f7fe fdda 	bl	8002b5c <MontyInit>
 8003fa8:	4604      	mov	r4, r0
 8003faa:	2800      	cmp	r0, #0
 8003fac:	f040 8091 	bne.w	80040d2 <ECDSAverify+0x2c8>
 8003fb0:	9805      	ldr	r0, [sp, #20]
 8003fb2:	9909      	ldr	r1, [sp, #36]	; 0x24
 8003fb4:	4602      	mov	r2, r0
 8003fb6:	463b      	mov	r3, r7
 8003fb8:	f7fe fe83 	bl	8002cc2 <MontyMul>
 8003fbc:	4604      	mov	r4, r0
 8003fbe:	4638      	mov	r0, r7
 8003fc0:	2c00      	cmp	r4, #0
 8003fc2:	f040 8081 	bne.w	80040c8 <ECDSAverify+0x2be>
 8003fc6:	f7fe fe69 	bl	8002c9c <MontyKillR2>
 8003fca:	9804      	ldr	r0, [sp, #16]
 8003fcc:	9905      	ldr	r1, [sp, #20]
 8003fce:	4602      	mov	r2, r0
 8003fd0:	463b      	mov	r3, r7
 8003fd2:	f7fe fe76 	bl	8002cc2 <MontyMul>
 8003fd6:	4604      	mov	r4, r0
 8003fd8:	2800      	cmp	r0, #0
 8003fda:	d17a      	bne.n	80040d2 <ECDSAverify+0x2c8>
 8003fdc:	9905      	ldr	r1, [sp, #20]
 8003fde:	f8d8 0000 	ldr.w	r0, [r8]
 8003fe2:	460a      	mov	r2, r1
 8003fe4:	463b      	mov	r3, r7
 8003fe6:	f7fe fe6c 	bl	8002cc2 <MontyMul>
 8003fea:	4604      	mov	r4, r0
 8003fec:	2800      	cmp	r0, #0
 8003fee:	d170      	bne.n	80040d2 <ECDSAverify+0x2c8>
 8003ff0:	4638      	mov	r0, r7
 8003ff2:	f7fe fe5a 	bl	8002caa <MontyKillAll>
 8003ff6:	686b      	ldr	r3, [r5, #4]
 8003ff8:	6b1b      	ldr	r3, [r3, #48]	; 0x30
 8003ffa:	4639      	mov	r1, r7
 8003ffc:	6898      	ldr	r0, [r3, #8]
 8003ffe:	4632      	mov	r2, r6
 8004000:	f7fe fdac 	bl	8002b5c <MontyInit>
 8004004:	4604      	mov	r4, r0
 8004006:	2800      	cmp	r0, #0
 8004008:	d163      	bne.n	80040d2 <ECDSAverify+0x2c8>
 800400a:	a806      	add	r0, sp, #24
 800400c:	6869      	ldr	r1, [r5, #4]
 800400e:	4632      	mov	r2, r6
 8004010:	f7ff fb1c 	bl	800364c <ECCinitPoint>
 8004014:	4604      	mov	r4, r0
 8004016:	2800      	cmp	r0, #0
 8004018:	d155      	bne.n	80040c6 <ECDSAverify+0x2bc>
 800401a:	9806      	ldr	r0, [sp, #24]
 800401c:	6869      	ldr	r1, [r5, #4]
 800401e:	f7ff fe45 	bl	8003cac <ECCsetPointGenerator>
 8004022:	4604      	mov	r4, r0
 8004024:	2800      	cmp	r0, #0
 8004026:	d14a      	bne.n	80040be <ECDSAverify+0x2b4>
 8004028:	a807      	add	r0, sp, #28
 800402a:	6869      	ldr	r1, [r5, #4]
 800402c:	4632      	mov	r2, r6
 800402e:	f7ff fb0d 	bl	800364c <ECCinitPoint>
 8004032:	4604      	mov	r4, r0
 8004034:	2800      	cmp	r0, #0
 8004036:	d13e      	bne.n	80040b6 <ECDSAverify+0x2ac>
 8004038:	9b07      	ldr	r3, [sp, #28]
 800403a:	9300      	str	r3, [sp, #0]
 800403c:	686b      	ldr	r3, [r5, #4]
 800403e:	9301      	str	r3, [sp, #4]
 8004040:	9702      	str	r7, [sp, #8]
 8004042:	9804      	ldr	r0, [sp, #16]
 8004044:	9906      	ldr	r1, [sp, #24]
 8004046:	9a05      	ldr	r2, [sp, #20]
 8004048:	682b      	ldr	r3, [r5, #0]
 800404a:	f7ff fd8f 	bl	8003b6c <Binary_DoublePointMul>
 800404e:	4604      	mov	r4, r0
 8004050:	2800      	cmp	r0, #0
 8004052:	d130      	bne.n	80040b6 <ECDSAverify+0x2ac>
 8004054:	9807      	ldr	r0, [sp, #28]
 8004056:	463a      	mov	r2, r7
 8004058:	4601      	mov	r1, r0
 800405a:	f7ff fbcf 	bl	80037fc <Normalize>
 800405e:	bb28      	cbnz	r0, 80040ac <ECDSAverify+0x2a2>
 8004060:	9b07      	ldr	r3, [sp, #28]
 8004062:	7b1b      	ldrb	r3, [r3, #12]
 8004064:	2b02      	cmp	r3, #2
 8004066:	d024      	beq.n	80040b2 <ECDSAverify+0x2a8>
 8004068:	686b      	ldr	r3, [r5, #4]
 800406a:	6b1a      	ldr	r2, [r3, #48]	; 0x30
 800406c:	9b07      	ldr	r3, [sp, #28]
 800406e:	68d1      	ldr	r1, [r2, #12]
 8004070:	6818      	ldr	r0, [r3, #0]
 8004072:	f7fe fa4c 	bl	800250e <CompareBig>
 8004076:	2800      	cmp	r0, #0
 8004078:	9b07      	ldr	r3, [sp, #28]
 800407a:	db0b      	blt.n	8004094 <ECDSAverify+0x28a>
 800407c:	6818      	ldr	r0, [r3, #0]
 800407e:	686b      	ldr	r3, [r5, #4]
 8004080:	6b1b      	ldr	r3, [r3, #48]	; 0x30
 8004082:	4602      	mov	r2, r0
 8004084:	68d9      	ldr	r1, [r3, #12]
 8004086:	4633      	mov	r3, r6
 8004088:	f7fe fd0a 	bl	8002aa0 <SubBig>
 800408c:	4604      	mov	r4, r0
 800408e:	2800      	cmp	r0, #0
 8004090:	d0ea      	beq.n	8004068 <ECDSAverify+0x25e>
 8004092:	e010      	b.n	80040b6 <ECDSAverify+0x2ac>
 8004094:	f8d8 0000 	ldr.w	r0, [r8]
 8004098:	6819      	ldr	r1, [r3, #0]
 800409a:	f7fe fa38 	bl	800250e <CompareBig>
 800409e:	f240 34eb 	movw	r4, #1003	; 0x3eb
 80040a2:	2800      	cmp	r0, #0
 80040a4:	bf18      	it	ne
 80040a6:	f44f 747b 	movne.w	r4, #1004	; 0x3ec
 80040aa:	e004      	b.n	80040b6 <ECDSAverify+0x2ac>
 80040ac:	f241 44bf 	movw	r4, #5311	; 0x14bf
 80040b0:	e001      	b.n	80040b6 <ECDSAverify+0x2ac>
 80040b2:	f44f 747b 	mov.w	r4, #1004	; 0x3ec
 80040b6:	a807      	add	r0, sp, #28
 80040b8:	4631      	mov	r1, r6
 80040ba:	f7ff fb30 	bl	800371e <ECCfreePoint>
 80040be:	a806      	add	r0, sp, #24
 80040c0:	4631      	mov	r1, r6
 80040c2:	f7ff fb2c 	bl	800371e <ECCfreePoint>
 80040c6:	4638      	mov	r0, r7
 80040c8:	f7fe fdef 	bl	8002caa <MontyKillAll>
 80040cc:	e001      	b.n	80040d2 <ECDSAverify+0x2c8>
 80040ce:	f241 44bf 	movw	r4, #5311	; 0x14bf
 80040d2:	a805      	add	r0, sp, #20
 80040d4:	4631      	mov	r1, r6
 80040d6:	f7fe f937 	bl	8002348 <StFreeBig>
 80040da:	e001      	b.n	80040e0 <ECDSAverify+0x2d6>
 80040dc:	f241 44bf 	movw	r4, #5311	; 0x14bf
 80040e0:	a804      	add	r0, sp, #16
 80040e2:	4631      	mov	r1, r6
 80040e4:	f7fe f930 	bl	8002348 <StFreeBig>
 80040e8:	e00a      	b.n	8004100 <ECDSAverify+0x2f6>
 80040ea:	f241 4454 	movw	r4, #5204	; 0x1454
 80040ee:	e007      	b.n	8004100 <ECDSAverify+0x2f6>
 80040f0:	f241 4453 	movw	r4, #5203	; 0x1453
 80040f4:	e004      	b.n	8004100 <ECDSAverify+0x2f6>
 80040f6:	f241 4457 	movw	r4, #5207	; 0x1457
 80040fa:	e001      	b.n	8004100 <ECDSAverify+0x2f6>
 80040fc:	f240 34ed 	movw	r4, #1005	; 0x3ed
 8004100:	4620      	mov	r0, r4
 8004102:	b00c      	add	sp, #48	; 0x30
 8004104:	e8bd 87f0 	ldmia.w	sp!, {r4, r5, r6, r7, r8, r9, sl, pc}

08004108 <ECCvalidatePubKey>:
 8004108:	b5f0      	push	{r4, r5, r6, r7, lr}
 800410a:	b08b      	sub	sp, #44	; 0x2c
 800410c:	2300      	movs	r3, #0
 800410e:	460e      	mov	r6, r1
 8004110:	4615      	mov	r5, r2
 8004112:	9302      	str	r3, [sp, #8]
 8004114:	9303      	str	r3, [sp, #12]
 8004116:	9304      	str	r3, [sp, #16]
 8004118:	9305      	str	r3, [sp, #20]
 800411a:	4607      	mov	r7, r0
 800411c:	2800      	cmp	r0, #0
 800411e:	f000 8106 	beq.w	800432e <ECCvalidatePubKey+0x226>
 8004122:	2900      	cmp	r1, #0
 8004124:	f000 8103 	beq.w	800432e <ECCvalidatePubKey+0x226>
 8004128:	2a00      	cmp	r2, #0
 800412a:	f000 8100 	beq.w	800432e <ECCvalidatePubKey+0x226>
 800412e:	6b0b      	ldr	r3, [r1, #48]	; 0x30
 8004130:	2b00      	cmp	r3, #0
 8004132:	f000 80ff 	beq.w	8004334 <ECCvalidatePubKey+0x22c>
 8004136:	689a      	ldr	r2, [r3, #8]
 8004138:	2a00      	cmp	r2, #0
 800413a:	f000 80fe 	beq.w	800433a <ECCvalidatePubKey+0x232>
 800413e:	68d9      	ldr	r1, [r3, #12]
 8004140:	2900      	cmp	r1, #0
 8004142:	f000 80fa 	beq.w	800433a <ECCvalidatePubKey+0x232>
 8004146:	6859      	ldr	r1, [r3, #4]
 8004148:	2900      	cmp	r1, #0
 800414a:	f000 80f6 	beq.w	800433a <ECCvalidatePubKey+0x232>
 800414e:	681b      	ldr	r3, [r3, #0]
 8004150:	2b00      	cmp	r3, #0
 8004152:	f000 80f2 	beq.w	800433a <ECCvalidatePubKey+0x232>
 8004156:	7b03      	ldrb	r3, [r0, #12]
 8004158:	2b02      	cmp	r3, #2
 800415a:	f000 80f1 	beq.w	8004340 <ECCvalidatePubKey+0x238>
 800415e:	682b      	ldr	r3, [r5, #0]
 8004160:	2b00      	cmp	r3, #0
 8004162:	f000 80f0 	beq.w	8004346 <ECCvalidatePubKey+0x23e>
 8004166:	88e9      	ldrh	r1, [r5, #6]
 8004168:	7993      	ldrb	r3, [r2, #6]
 800416a:	88aa      	ldrh	r2, [r5, #4]
 800416c:	3134      	adds	r1, #52	; 0x34
 800416e:	200c      	movs	r0, #12
 8004170:	fb10 1103 	smlabb	r1, r0, r3, r1
 8004174:	3303      	adds	r3, #3
 8004176:	eb01 03c3 	add.w	r3, r1, r3, lsl #3
 800417a:	429a      	cmp	r2, r3
 800417c:	f0c0 80e3 	bcc.w	8004346 <ECCvalidatePubKey+0x23e>
 8004180:	a802      	add	r0, sp, #8
 8004182:	4631      	mov	r1, r6
 8004184:	462a      	mov	r2, r5
 8004186:	f7ff fa61 	bl	800364c <ECCinitPoint>
 800418a:	2800      	cmp	r0, #0
 800418c:	f040 80dd 	bne.w	800434a <ECCvalidatePubKey+0x242>
 8004190:	6b33      	ldr	r3, [r6, #48]	; 0x30
 8004192:	6838      	ldr	r0, [r7, #0]
 8004194:	6899      	ldr	r1, [r3, #8]
 8004196:	f7fe f9ba 	bl	800250e <CompareBig>
 800419a:	2800      	cmp	r0, #0
 800419c:	db02      	blt.n	80041a4 <ECCvalidatePubKey+0x9c>
 800419e:	f241 4455 	movw	r4, #5205	; 0x1455
 80041a2:	e0be      	b.n	8004322 <ECCvalidatePubKey+0x21a>
 80041a4:	6b33      	ldr	r3, [r6, #48]	; 0x30
 80041a6:	6878      	ldr	r0, [r7, #4]
 80041a8:	6899      	ldr	r1, [r3, #8]
 80041aa:	f7fe f9b0 	bl	800250e <CompareBig>
 80041ae:	2800      	cmp	r0, #0
 80041b0:	daf5      	bge.n	800419e <ECCvalidatePubKey+0x96>
 80041b2:	4638      	mov	r0, r7
 80041b4:	9902      	ldr	r1, [sp, #8]
 80041b6:	f7ff faf9 	bl	80037ac <ECCcopyPoint>
 80041ba:	4604      	mov	r4, r0
 80041bc:	2800      	cmp	r0, #0
 80041be:	f040 80b0 	bne.w	8004322 <ECCvalidatePubKey+0x21a>
 80041c2:	6b33      	ldr	r3, [r6, #48]	; 0x30
 80041c4:	a906      	add	r1, sp, #24
 80041c6:	6898      	ldr	r0, [r3, #8]
 80041c8:	462a      	mov	r2, r5
 80041ca:	f7fe fcc7 	bl	8002b5c <MontyInit>
 80041ce:	4604      	mov	r4, r0
 80041d0:	2800      	cmp	r0, #0
 80041d2:	f040 80a6 	bne.w	8004322 <ECCvalidatePubKey+0x21a>
 80041d6:	6b33      	ldr	r3, [r6, #48]	; 0x30
 80041d8:	689b      	ldr	r3, [r3, #8]
 80041da:	a804      	add	r0, sp, #16
 80041dc:	7999      	ldrb	r1, [r3, #6]
 80041de:	462a      	mov	r2, r5
 80041e0:	f7fe f897 	bl	8002312 <StAllocBig>
 80041e4:	4604      	mov	r4, r0
 80041e6:	2800      	cmp	r0, #0
 80041e8:	f040 8098 	bne.w	800431c <ECCvalidatePubKey+0x214>
 80041ec:	6b33      	ldr	r3, [r6, #48]	; 0x30
 80041ee:	689b      	ldr	r3, [r3, #8]
 80041f0:	a803      	add	r0, sp, #12
 80041f2:	7999      	ldrb	r1, [r3, #6]
 80041f4:	462a      	mov	r2, r5
 80041f6:	f7fe f88c 	bl	8002312 <StAllocBig>
 80041fa:	4604      	mov	r4, r0
 80041fc:	2800      	cmp	r0, #0
 80041fe:	f040 8089 	bne.w	8004314 <ECCvalidatePubKey+0x20c>
 8004202:	9b02      	ldr	r3, [sp, #8]
 8004204:	9907      	ldr	r1, [sp, #28]
 8004206:	6818      	ldr	r0, [r3, #0]
 8004208:	ab06      	add	r3, sp, #24
 800420a:	4602      	mov	r2, r0
 800420c:	f7fe fd59 	bl	8002cc2 <MontyMul>
 8004210:	4604      	mov	r4, r0
 8004212:	2800      	cmp	r0, #0
 8004214:	d17a      	bne.n	800430c <ECCvalidatePubKey+0x204>
 8004216:	9b02      	ldr	r3, [sp, #8]
 8004218:	9907      	ldr	r1, [sp, #28]
 800421a:	6858      	ldr	r0, [r3, #4]
 800421c:	ab06      	add	r3, sp, #24
 800421e:	4602      	mov	r2, r0
 8004220:	f7fe fd4f 	bl	8002cc2 <MontyMul>
 8004224:	4604      	mov	r4, r0
 8004226:	2800      	cmp	r0, #0
 8004228:	d170      	bne.n	800430c <ECCvalidatePubKey+0x204>
 800422a:	9b02      	ldr	r3, [sp, #8]
 800422c:	6818      	ldr	r0, [r3, #0]
 800422e:	689a      	ldr	r2, [r3, #8]
 8004230:	4601      	mov	r1, r0
 8004232:	ab06      	add	r3, sp, #24
 8004234:	f7fe fd45 	bl	8002cc2 <MontyMul>
 8004238:	4604      	mov	r4, r0
 800423a:	2800      	cmp	r0, #0
 800423c:	d166      	bne.n	800430c <ECCvalidatePubKey+0x204>
 800423e:	6b33      	ldr	r3, [r6, #48]	; 0x30
 8004240:	9904      	ldr	r1, [sp, #16]
 8004242:	6818      	ldr	r0, [r3, #0]
 8004244:	f7fe f8a4 	bl	8002390 <CopyBig>
 8004248:	9804      	ldr	r0, [sp, #16]
 800424a:	9907      	ldr	r1, [sp, #28]
 800424c:	9a03      	ldr	r2, [sp, #12]
 800424e:	ab06      	add	r3, sp, #24
 8004250:	f7fe fd37 	bl	8002cc2 <MontyMul>
 8004254:	4604      	mov	r4, r0
 8004256:	2800      	cmp	r0, #0
 8004258:	d158      	bne.n	800430c <ECCvalidatePubKey+0x204>
 800425a:	9b02      	ldr	r3, [sp, #8]
 800425c:	9903      	ldr	r1, [sp, #12]
 800425e:	6898      	ldr	r0, [r3, #8]
 8004260:	9500      	str	r5, [sp, #0]
 8004262:	4602      	mov	r2, r0
 8004264:	9b06      	ldr	r3, [sp, #24]
 8004266:	f7fe fe3a 	bl	8002ede <ModularAddBig>
 800426a:	4604      	mov	r4, r0
 800426c:	2800      	cmp	r0, #0
 800426e:	d14d      	bne.n	800430c <ECCvalidatePubKey+0x204>
 8004270:	9b02      	ldr	r3, [sp, #8]
 8004272:	6899      	ldr	r1, [r3, #8]
 8004274:	6818      	ldr	r0, [r3, #0]
 8004276:	460a      	mov	r2, r1
 8004278:	ab06      	add	r3, sp, #24
 800427a:	f7fe fd22 	bl	8002cc2 <MontyMul>
 800427e:	4604      	mov	r4, r0
 8004280:	2800      	cmp	r0, #0
 8004282:	d143      	bne.n	800430c <ECCvalidatePubKey+0x204>
 8004284:	6b33      	ldr	r3, [r6, #48]	; 0x30
 8004286:	9904      	ldr	r1, [sp, #16]
 8004288:	6858      	ldr	r0, [r3, #4]
 800428a:	f7fe f881 	bl	8002390 <CopyBig>
 800428e:	9804      	ldr	r0, [sp, #16]
 8004290:	9907      	ldr	r1, [sp, #28]
 8004292:	9a03      	ldr	r2, [sp, #12]
 8004294:	ab06      	add	r3, sp, #24
 8004296:	f7fe fd14 	bl	8002cc2 <MontyMul>
 800429a:	4604      	mov	r4, r0
 800429c:	2800      	cmp	r0, #0
 800429e:	d135      	bne.n	800430c <ECCvalidatePubKey+0x204>
 80042a0:	9b02      	ldr	r3, [sp, #8]
 80042a2:	9903      	ldr	r1, [sp, #12]
 80042a4:	6898      	ldr	r0, [r3, #8]
 80042a6:	9500      	str	r5, [sp, #0]
 80042a8:	4602      	mov	r2, r0
 80042aa:	9b06      	ldr	r3, [sp, #24]
 80042ac:	f7fe fe17 	bl	8002ede <ModularAddBig>
 80042b0:	4604      	mov	r4, r0
 80042b2:	2800      	cmp	r0, #0
 80042b4:	d12a      	bne.n	800430c <ECCvalidatePubKey+0x204>
 80042b6:	9b02      	ldr	r3, [sp, #8]
 80042b8:	6858      	ldr	r0, [r3, #4]
 80042ba:	681a      	ldr	r2, [r3, #0]
 80042bc:	4601      	mov	r1, r0
 80042be:	ab06      	add	r3, sp, #24
 80042c0:	f7fe fcff 	bl	8002cc2 <MontyMul>
 80042c4:	4604      	mov	r4, r0
 80042c6:	bb08      	cbnz	r0, 800430c <ECCvalidatePubKey+0x204>
 80042c8:	4b21      	ldr	r3, [pc, #132]	; (8004350 <ECCvalidatePubKey+0x248>)
 80042ca:	2201      	movs	r2, #1
 80042cc:	601a      	str	r2, [r3, #0]
 80042ce:	681b      	ldr	r3, [r3, #0]
 80042d0:	4a20      	ldr	r2, [pc, #128]	; (8004354 <ECCvalidatePubKey+0x24c>)
 80042d2:	9305      	str	r3, [sp, #20]
 80042d4:	6813      	ldr	r3, [r2, #0]
 80042d6:	9305      	str	r3, [sp, #20]
 80042d8:	9b05      	ldr	r3, [sp, #20]
 80042da:	3301      	adds	r3, #1
 80042dc:	9b02      	ldr	r3, [sp, #8]
 80042de:	d10d      	bne.n	80042fc <ECCvalidatePubKey+0x1f4>
 80042e0:	9905      	ldr	r1, [sp, #20]
 80042e2:	6011      	str	r1, [r2, #0]
 80042e4:	6812      	ldr	r2, [r2, #0]
 80042e6:	9205      	str	r2, [sp, #20]
 80042e8:	9a05      	ldr	r2, [sp, #20]
 80042ea:	6818      	ldr	r0, [r3, #0]
 80042ec:	b93a      	cbnz	r2, 80042fe <ECCvalidatePubKey+0x1f6>
 80042ee:	6899      	ldr	r1, [r3, #8]
 80042f0:	f7fe f90d 	bl	800250e <CompareBig>
 80042f4:	b150      	cbz	r0, 800430c <ECCvalidatePubKey+0x204>
 80042f6:	f241 4455 	movw	r4, #5205	; 0x1455
 80042fa:	e007      	b.n	800430c <ECCvalidatePubKey+0x204>
 80042fc:	6818      	ldr	r0, [r3, #0]
 80042fe:	4601      	mov	r1, r0
 8004300:	f7fe f905 	bl	800250e <CompareBig>
 8004304:	2800      	cmp	r0, #0
 8004306:	d1f6      	bne.n	80042f6 <ECCvalidatePubKey+0x1ee>
 8004308:	f241 4452 	movw	r4, #5202	; 0x1452
 800430c:	a803      	add	r0, sp, #12
 800430e:	4629      	mov	r1, r5
 8004310:	f7fe f81a 	bl	8002348 <StFreeBig>
 8004314:	a804      	add	r0, sp, #16
 8004316:	4629      	mov	r1, r5
 8004318:	f7fe f816 	bl	8002348 <StFreeBig>
 800431c:	a806      	add	r0, sp, #24
 800431e:	f7fe fcc4 	bl	8002caa <MontyKillAll>
 8004322:	a802      	add	r0, sp, #8
 8004324:	4629      	mov	r1, r5
 8004326:	f7ff f9fa 	bl	800371e <ECCfreePoint>
 800432a:	4620      	mov	r0, r4
 800432c:	e00d      	b.n	800434a <ECCvalidatePubKey+0x242>
 800432e:	f241 4054 	movw	r0, #5204	; 0x1454
 8004332:	e00a      	b.n	800434a <ECCvalidatePubKey+0x242>
 8004334:	f241 4053 	movw	r0, #5203	; 0x1453
 8004338:	e007      	b.n	800434a <ECCvalidatePubKey+0x242>
 800433a:	f241 4057 	movw	r0, #5207	; 0x1457
 800433e:	e004      	b.n	800434a <ECCvalidatePubKey+0x242>
 8004340:	f241 4055 	movw	r0, #5205	; 0x1455
 8004344:	e001      	b.n	800434a <ECCvalidatePubKey+0x242>
 8004346:	f240 30ed 	movw	r0, #1005	; 0x3ed
 800434a:	b00b      	add	sp, #44	; 0x2c
 800434c:	bdf0      	pop	{r4, r5, r6, r7, pc}
 800434e:	bf00      	nop
 8004350:	40023008 	.word	0x40023008
 8004354:	40023000 	.word	0x40023000

08004358 <memcmp>:
 8004358:	b510      	push	{r4, lr}
 800435a:	3901      	subs	r1, #1
 800435c:	4402      	add	r2, r0
 800435e:	4290      	cmp	r0, r2
 8004360:	d101      	bne.n	8004366 <memcmp+0xe>
 8004362:	2000      	movs	r0, #0
 8004364:	e005      	b.n	8004372 <memcmp+0x1a>
 8004366:	7803      	ldrb	r3, [r0, #0]
 8004368:	f811 4f01 	ldrb.w	r4, [r1, #1]!
 800436c:	42a3      	cmp	r3, r4
 800436e:	d001      	beq.n	8004374 <memcmp+0x1c>
 8004370:	1b18      	subs	r0, r3, r4
 8004372:	bd10      	pop	{r4, pc}
 8004374:	3001      	adds	r0, #1
 8004376:	e7f2      	b.n	800435e <memcmp+0x6>

08004378 <memcpy>:
 8004378:	440a      	add	r2, r1
 800437a:	4291      	cmp	r1, r2
 800437c:	f100 33ff 	add.w	r3, r0, #4294967295	; 0xffffffff
 8004380:	d100      	bne.n	8004384 <memcpy+0xc>
 8004382:	4770      	bx	lr
 8004384:	b510      	push	{r4, lr}
 8004386:	f811 4b01 	ldrb.w	r4, [r1], #1
 800438a:	f803 4f01 	strb.w	r4, [r3, #1]!
 800438e:	4291      	cmp	r1, r2
 8004390:	d1f9      	bne.n	8004386 <memcpy+0xe>
 8004392:	bd10      	pop	{r4, pc}

08004394 <memset>:
 8004394:	4402      	add	r2, r0
 8004396:	4603      	mov	r3, r0
 8004398:	4293      	cmp	r3, r2
 800439a:	d100      	bne.n	800439e <memset+0xa>
 800439c:	4770      	bx	lr
 800439e:	f803 1b01 	strb.w	r1, [r3], #1
 80043a2:	e7f9      	b.n	8004398 <memset+0x4>

080043a4 <_init>:
 80043a4:	b5f8      	push	{r3, r4, r5, r6, r7, lr}
 80043a6:	bf00      	nop
 80043a8:	bcf8      	pop	{r3, r4, r5, r6, r7}
 80043aa:	bc08      	pop	{r3}
 80043ac:	469e      	mov	lr, r3
 80043ae:	4770      	bx	lr

080043b0 <_fini>:
 80043b0:	b5f8      	push	{r3, r4, r5, r6, r7, lr}
 80043b2:	bf00      	nop
 80043b4:	bcf8      	pop	{r3, r4, r5, r6, r7}
 80043b6:	bc08      	pop	{r3}
 80043b8:	469e      	mov	lr, r3
 80043ba:	4770      	bx	lr
 80043bc:	0000      	movs	r0, r0
	...
